ARM GAS  C:\Users\wyx12\AppData\Local\Temp\ccLiZMYq.s 			page 1


   1              		.cpu cortex-m3
   2              		.arch armv7-m
   3              		.fpu softvfp
   4              		.eabi_attribute 20, 1
   5              		.eabi_attribute 21, 1
   6              		.eabi_attribute 23, 3
   7              		.eabi_attribute 24, 1
   8              		.eabi_attribute 25, 1
   9              		.eabi_attribute 26, 1
  10              		.eabi_attribute 30, 1
  11              		.eabi_attribute 34, 1
  12              		.eabi_attribute 18, 4
  13              		.file	"main.cpp"
  14              		.text
  15              	.Ltext0:
  16              		.cfi_sections	.debug_frame
  17              		.file 1 "Core/Src/main.cpp"
  18              		.section	.text.Error_Handler,"ax",%progbits
  19              		.align	1
  20              		.global	Error_Handler
  21              		.syntax unified
  22              		.thumb
  23              		.thumb_func
  25              	Error_Handler:
  26              	.LFB1577:
   1:Core/Src/main.cpp **** /* USER CODE BEGIN Header */
   2:Core/Src/main.cpp **** /**
   3:Core/Src/main.cpp ****  ******************************************************************************
   4:Core/Src/main.cpp ****  * @file           : main.c
   5:Core/Src/main.cpp ****  * @brief          : Main program body
   6:Core/Src/main.cpp ****  ******************************************************************************
   7:Core/Src/main.cpp ****  * @attention
   8:Core/Src/main.cpp ****  *
   9:Core/Src/main.cpp ****  * Copyright (c) 2023 STMicroelectronics.
  10:Core/Src/main.cpp ****  * All rights reserved.
  11:Core/Src/main.cpp ****  *
  12:Core/Src/main.cpp ****  * This software is licensed under terms that can be found in the LICENSE file
  13:Core/Src/main.cpp ****  * in the root directory of this software component.
  14:Core/Src/main.cpp ****  * If no LICENSE file comes with this software, it is provided AS-IS.
  15:Core/Src/main.cpp ****  *
  16:Core/Src/main.cpp ****  ******************************************************************************
  17:Core/Src/main.cpp ****  */
  18:Core/Src/main.cpp **** /* USER CODE END Header */
  19:Core/Src/main.cpp **** /* Includes ------------------------------------------------------------------*/
  20:Core/Src/main.cpp **** #include "main.h"
  21:Core/Src/main.cpp **** #include "crc.h"
  22:Core/Src/main.cpp **** #include "gpio.h"
  23:Core/Src/main.cpp **** #include <vector>
  24:Core/Src/main.cpp **** #include <string>
  25:Core/Src/main.cpp **** /* Private includes ----------------------------------------------------------*/
  26:Core/Src/main.cpp **** /* USER CODE BEGIN Includes */
  27:Core/Src/main.cpp **** /* USER CODE END Includes */
  28:Core/Src/main.cpp **** 
  29:Core/Src/main.cpp **** /* Private typedef -----------------------------------------------------------*/
  30:Core/Src/main.cpp **** /* USER CODE BEGIN PTD */
  31:Core/Src/main.cpp **** 
  32:Core/Src/main.cpp **** /* USER CODE END PTD */
ARM GAS  C:\Users\wyx12\AppData\Local\Temp\ccLiZMYq.s 			page 2


  33:Core/Src/main.cpp **** 
  34:Core/Src/main.cpp **** /* Private define ------------------------------------------------------------*/
  35:Core/Src/main.cpp **** /* USER CODE BEGIN PD */
  36:Core/Src/main.cpp **** 
  37:Core/Src/main.cpp **** /* USER CODE END PD */
  38:Core/Src/main.cpp **** 
  39:Core/Src/main.cpp **** /* Private macro -------------------------------------------------------------*/
  40:Core/Src/main.cpp **** /* USER CODE BEGIN PM */
  41:Core/Src/main.cpp **** 
  42:Core/Src/main.cpp **** /* USER CODE END PM */
  43:Core/Src/main.cpp **** 
  44:Core/Src/main.cpp **** /* Private variables ---------------------------------------------------------*/
  45:Core/Src/main.cpp **** 
  46:Core/Src/main.cpp **** /* USER CODE BEGIN PV */
  47:Core/Src/main.cpp **** 
  48:Core/Src/main.cpp **** /* USER CODE END PV */
  49:Core/Src/main.cpp **** 
  50:Core/Src/main.cpp **** /* Private function prototypes -----------------------------------------------*/
  51:Core/Src/main.cpp **** void SystemClock_Config(void);
  52:Core/Src/main.cpp **** /* USER CODE BEGIN PFP */
  53:Core/Src/main.cpp **** // int _isatty(int fd);
  54:Core/Src/main.cpp **** // int _write(int fd, char *ptr, int len);
  55:Core/Src/main.cpp **** // int _close(int fd);
  56:Core/Src/main.cpp **** // int _lseek(int fd, int ptr, int dir);
  57:Core/Src/main.cpp **** // int _read(int fd, char *ptr, int len);
  58:Core/Src/main.cpp **** // int _fstat(int fd, struct stat *st);
  59:Core/Src/main.cpp **** /* USER CODE END PFP */
  60:Core/Src/main.cpp **** 
  61:Core/Src/main.cpp **** /* Private user code ---------------------------------------------------------*/
  62:Core/Src/main.cpp **** /* USER CODE BEGIN 0 */
  63:Core/Src/main.cpp **** #define LED0 HAL_GPIO_WritePin(LED_GPIO_Port, LED_Pin, GPIO_PIN_RESET)
  64:Core/Src/main.cpp **** #define LED1 HAL_GPIO_WritePin(LED_GPIO_Port, LED_Pin, GPIO_PIN_SET)
  65:Core/Src/main.cpp **** using namespace std;
  66:Core/Src/main.cpp **** /* USER CODE END 0 */
  67:Core/Src/main.cpp **** 
  68:Core/Src/main.cpp **** /**
  69:Core/Src/main.cpp ****  * @brief  The application entry point.
  70:Core/Src/main.cpp ****  * @retval int
  71:Core/Src/main.cpp ****  */
  72:Core/Src/main.cpp **** int main(void)
  73:Core/Src/main.cpp **** {
  74:Core/Src/main.cpp ****   /* USER CODE BEGIN 1 */
  75:Core/Src/main.cpp **** 
  76:Core/Src/main.cpp ****   /* USER CODE END 1 */
  77:Core/Src/main.cpp **** 
  78:Core/Src/main.cpp ****   /* MCU Configuration--------------------------------------------------------*/
  79:Core/Src/main.cpp **** 
  80:Core/Src/main.cpp ****   /* Reset of all peripherals, Initializes the Flash interface and the Systick. */
  81:Core/Src/main.cpp ****   HAL_Init();
  82:Core/Src/main.cpp **** 
  83:Core/Src/main.cpp ****   /* USER CODE BEGIN Init */
  84:Core/Src/main.cpp **** 
  85:Core/Src/main.cpp ****   /* USER CODE END Init */
  86:Core/Src/main.cpp **** 
  87:Core/Src/main.cpp ****   /* Configure the system clock */
  88:Core/Src/main.cpp ****   SystemClock_Config();
  89:Core/Src/main.cpp **** 
ARM GAS  C:\Users\wyx12\AppData\Local\Temp\ccLiZMYq.s 			page 3


  90:Core/Src/main.cpp ****   /* USER CODE BEGIN SysInit */
  91:Core/Src/main.cpp **** 
  92:Core/Src/main.cpp ****   /* USER CODE END SysInit */
  93:Core/Src/main.cpp **** 
  94:Core/Src/main.cpp ****   /* Initialize all configured peripherals */
  95:Core/Src/main.cpp ****   MX_GPIO_Init();
  96:Core/Src/main.cpp ****   MX_CRC_Init();
  97:Core/Src/main.cpp ****   /* USER CODE BEGIN 2 */
  98:Core/Src/main.cpp ****   /* USER CODE END 2 */
  99:Core/Src/main.cpp **** 
 100:Core/Src/main.cpp ****   /* Infinite loop */
 101:Core/Src/main.cpp ****   /* USER CODE BEGIN WHILE */
 102:Core/Src/main.cpp ****   while (1)
 103:Core/Src/main.cpp ****   {
 104:Core/Src/main.cpp ****     LED0;
 105:Core/Src/main.cpp ****     HAL_Delay(100);
 106:Core/Src/main.cpp ****     LED1;
 107:Core/Src/main.cpp ****     HAL_Delay(100);
 108:Core/Src/main.cpp ****     string str("hello c++");
 109:Core/Src/main.cpp ****     str.append("cppdemo!");
 110:Core/Src/main.cpp ****     vector<std::string> sVec;
 111:Core/Src/main.cpp ****     sVec.push_back("hello c++ 1\n");
 112:Core/Src/main.cpp ****     sVec.push_back("hello c++ 2\n");
 113:Core/Src/main.cpp ****     sVec.push_back("hello c++ 3\n");
 114:Core/Src/main.cpp ****     sVec.push_back("hello c++ 4\n");
 115:Core/Src/main.cpp ****     sVec.push_back("hello c++ 5\n");
 116:Core/Src/main.cpp ****     for (auto s : sVec)
 117:Core/Src/main.cpp ****     {
 118:Core/Src/main.cpp ****       HAL_Delay(100);
 119:Core/Src/main.cpp ****     }
 120:Core/Src/main.cpp ****     HAL_Delay(500);
 121:Core/Src/main.cpp ****     /* USER CODE END WHILE */
 122:Core/Src/main.cpp **** 
 123:Core/Src/main.cpp ****     /* USER CODE BEGIN 3 */
 124:Core/Src/main.cpp ****   }
 125:Core/Src/main.cpp ****   /* USER CODE END 3 */
 126:Core/Src/main.cpp **** }
 127:Core/Src/main.cpp **** 
 128:Core/Src/main.cpp **** /**
 129:Core/Src/main.cpp ****  * @brief System Clock Configuration
 130:Core/Src/main.cpp ****  * @retval None
 131:Core/Src/main.cpp ****  */
 132:Core/Src/main.cpp **** void SystemClock_Config(void)
 133:Core/Src/main.cpp **** {
 134:Core/Src/main.cpp ****   RCC_OscInitTypeDef RCC_OscInitStruct = {0};
 135:Core/Src/main.cpp ****   RCC_ClkInitTypeDef RCC_ClkInitStruct = {0};
 136:Core/Src/main.cpp **** 
 137:Core/Src/main.cpp ****   /** Initializes the RCC Oscillators according to the specified parameters
 138:Core/Src/main.cpp ****    * in the RCC_OscInitTypeDef structure.
 139:Core/Src/main.cpp ****    */
 140:Core/Src/main.cpp ****   RCC_OscInitStruct.OscillatorType = RCC_OSCILLATORTYPE_HSI;
 141:Core/Src/main.cpp ****   RCC_OscInitStruct.HSIState = RCC_HSI_ON;
 142:Core/Src/main.cpp ****   RCC_OscInitStruct.HSICalibrationValue = RCC_HSICALIBRATION_DEFAULT;
 143:Core/Src/main.cpp ****   RCC_OscInitStruct.PLL.PLLState = RCC_PLL_ON;
 144:Core/Src/main.cpp ****   RCC_OscInitStruct.PLL.PLLSource = RCC_PLLSOURCE_HSI_DIV2;
 145:Core/Src/main.cpp ****   RCC_OscInitStruct.PLL.PLLMUL = RCC_PLL_MUL16;
 146:Core/Src/main.cpp ****   if (HAL_RCC_OscConfig(&RCC_OscInitStruct) != HAL_OK)
ARM GAS  C:\Users\wyx12\AppData\Local\Temp\ccLiZMYq.s 			page 4


 147:Core/Src/main.cpp ****   {
 148:Core/Src/main.cpp ****     Error_Handler();
 149:Core/Src/main.cpp ****   }
 150:Core/Src/main.cpp **** 
 151:Core/Src/main.cpp ****   /** Initializes the CPU, AHB and APB buses clocks
 152:Core/Src/main.cpp ****    */
 153:Core/Src/main.cpp ****   RCC_ClkInitStruct.ClockType = RCC_CLOCKTYPE_HCLK | RCC_CLOCKTYPE_SYSCLK | RCC_CLOCKTYPE_PCLK1 | R
 154:Core/Src/main.cpp ****   RCC_ClkInitStruct.SYSCLKSource = RCC_SYSCLKSOURCE_PLLCLK;
 155:Core/Src/main.cpp ****   RCC_ClkInitStruct.AHBCLKDivider = RCC_SYSCLK_DIV1;
 156:Core/Src/main.cpp ****   RCC_ClkInitStruct.APB1CLKDivider = RCC_HCLK_DIV2;
 157:Core/Src/main.cpp ****   RCC_ClkInitStruct.APB2CLKDivider = RCC_HCLK_DIV1;
 158:Core/Src/main.cpp **** 
 159:Core/Src/main.cpp ****   if (HAL_RCC_ClockConfig(&RCC_ClkInitStruct, FLASH_LATENCY_2) != HAL_OK)
 160:Core/Src/main.cpp ****   {
 161:Core/Src/main.cpp ****     Error_Handler();
 162:Core/Src/main.cpp ****   }
 163:Core/Src/main.cpp **** }
 164:Core/Src/main.cpp **** 
 165:Core/Src/main.cpp **** /* USER CODE BEGIN 4 */
 166:Core/Src/main.cpp **** /* USER CODE END 4 */
 167:Core/Src/main.cpp **** 
 168:Core/Src/main.cpp **** /**
 169:Core/Src/main.cpp ****  * @brief  This function is executed in case of error occurrence.
 170:Core/Src/main.cpp ****  * @retval None
 171:Core/Src/main.cpp ****  */
 172:Core/Src/main.cpp **** void Error_Handler(void)
 173:Core/Src/main.cpp **** {
  27              		.loc 1 173 1 view -0
  28              		.cfi_startproc
  29              		@ Volatile: function does not return.
  30              		@ args = 0, pretend = 0, frame = 0
  31              		@ frame_needed = 0, uses_anonymous_args = 0
  32              		@ link register save eliminated.
 174:Core/Src/main.cpp ****   /* USER CODE BEGIN Error_Handler_Debug */
 175:Core/Src/main.cpp ****   /* User can add his own implementation to report the HAL error return state */
 176:Core/Src/main.cpp ****   __disable_irq();
  33              		.loc 1 176 3 view .LVU1
  34              	.LBB637:
  35              	.LBI637:
  36              		.file 2 "Drivers/CMSIS/Include/cmsis_gcc.h"
   1:Drivers/CMSIS/Include/cmsis_gcc.h **** /**************************************************************************//**
   2:Drivers/CMSIS/Include/cmsis_gcc.h ****  * @file     cmsis_gcc.h
   3:Drivers/CMSIS/Include/cmsis_gcc.h ****  * @brief    CMSIS compiler GCC header file
   4:Drivers/CMSIS/Include/cmsis_gcc.h ****  * @version  V5.0.4
   5:Drivers/CMSIS/Include/cmsis_gcc.h ****  * @date     09. April 2018
   6:Drivers/CMSIS/Include/cmsis_gcc.h ****  ******************************************************************************/
   7:Drivers/CMSIS/Include/cmsis_gcc.h **** /*
   8:Drivers/CMSIS/Include/cmsis_gcc.h ****  * Copyright (c) 2009-2018 Arm Limited. All rights reserved.
   9:Drivers/CMSIS/Include/cmsis_gcc.h ****  *
  10:Drivers/CMSIS/Include/cmsis_gcc.h ****  * SPDX-License-Identifier: Apache-2.0
  11:Drivers/CMSIS/Include/cmsis_gcc.h ****  *
  12:Drivers/CMSIS/Include/cmsis_gcc.h ****  * Licensed under the Apache License, Version 2.0 (the License); you may
  13:Drivers/CMSIS/Include/cmsis_gcc.h ****  * not use this file except in compliance with the License.
  14:Drivers/CMSIS/Include/cmsis_gcc.h ****  * You may obtain a copy of the License at
  15:Drivers/CMSIS/Include/cmsis_gcc.h ****  *
  16:Drivers/CMSIS/Include/cmsis_gcc.h ****  * www.apache.org/licenses/LICENSE-2.0
  17:Drivers/CMSIS/Include/cmsis_gcc.h ****  *
ARM GAS  C:\Users\wyx12\AppData\Local\Temp\ccLiZMYq.s 			page 5


  18:Drivers/CMSIS/Include/cmsis_gcc.h ****  * Unless required by applicable law or agreed to in writing, software
  19:Drivers/CMSIS/Include/cmsis_gcc.h ****  * distributed under the License is distributed on an AS IS BASIS, WITHOUT
  20:Drivers/CMSIS/Include/cmsis_gcc.h ****  * WARRANTIES OR CONDITIONS OF ANY KIND, either express or implied.
  21:Drivers/CMSIS/Include/cmsis_gcc.h ****  * See the License for the specific language governing permissions and
  22:Drivers/CMSIS/Include/cmsis_gcc.h ****  * limitations under the License.
  23:Drivers/CMSIS/Include/cmsis_gcc.h ****  */
  24:Drivers/CMSIS/Include/cmsis_gcc.h **** 
  25:Drivers/CMSIS/Include/cmsis_gcc.h **** #ifndef __CMSIS_GCC_H
  26:Drivers/CMSIS/Include/cmsis_gcc.h **** #define __CMSIS_GCC_H
  27:Drivers/CMSIS/Include/cmsis_gcc.h **** 
  28:Drivers/CMSIS/Include/cmsis_gcc.h **** /* ignore some GCC warnings */
  29:Drivers/CMSIS/Include/cmsis_gcc.h **** #pragma GCC diagnostic push
  30:Drivers/CMSIS/Include/cmsis_gcc.h **** #pragma GCC diagnostic ignored "-Wsign-conversion"
  31:Drivers/CMSIS/Include/cmsis_gcc.h **** #pragma GCC diagnostic ignored "-Wconversion"
  32:Drivers/CMSIS/Include/cmsis_gcc.h **** #pragma GCC diagnostic ignored "-Wunused-parameter"
  33:Drivers/CMSIS/Include/cmsis_gcc.h **** 
  34:Drivers/CMSIS/Include/cmsis_gcc.h **** /* Fallback for __has_builtin */
  35:Drivers/CMSIS/Include/cmsis_gcc.h **** #ifndef __has_builtin
  36:Drivers/CMSIS/Include/cmsis_gcc.h ****   #define __has_builtin(x) (0)
  37:Drivers/CMSIS/Include/cmsis_gcc.h **** #endif
  38:Drivers/CMSIS/Include/cmsis_gcc.h **** 
  39:Drivers/CMSIS/Include/cmsis_gcc.h **** /* CMSIS compiler specific defines */
  40:Drivers/CMSIS/Include/cmsis_gcc.h **** #ifndef   __ASM
  41:Drivers/CMSIS/Include/cmsis_gcc.h ****   #define __ASM                                  __asm
  42:Drivers/CMSIS/Include/cmsis_gcc.h **** #endif
  43:Drivers/CMSIS/Include/cmsis_gcc.h **** #ifndef   __INLINE
  44:Drivers/CMSIS/Include/cmsis_gcc.h ****   #define __INLINE                               inline
  45:Drivers/CMSIS/Include/cmsis_gcc.h **** #endif
  46:Drivers/CMSIS/Include/cmsis_gcc.h **** #ifndef   __STATIC_INLINE
  47:Drivers/CMSIS/Include/cmsis_gcc.h ****   #define __STATIC_INLINE                        static inline
  48:Drivers/CMSIS/Include/cmsis_gcc.h **** #endif
  49:Drivers/CMSIS/Include/cmsis_gcc.h **** #ifndef   __STATIC_FORCEINLINE                 
  50:Drivers/CMSIS/Include/cmsis_gcc.h ****   #define __STATIC_FORCEINLINE                   __attribute__((always_inline)) static inline
  51:Drivers/CMSIS/Include/cmsis_gcc.h **** #endif                                           
  52:Drivers/CMSIS/Include/cmsis_gcc.h **** #ifndef   __NO_RETURN
  53:Drivers/CMSIS/Include/cmsis_gcc.h ****   #define __NO_RETURN                            __attribute__((__noreturn__))
  54:Drivers/CMSIS/Include/cmsis_gcc.h **** #endif
  55:Drivers/CMSIS/Include/cmsis_gcc.h **** #ifndef   __USED
  56:Drivers/CMSIS/Include/cmsis_gcc.h ****   #define __USED                                 __attribute__((used))
  57:Drivers/CMSIS/Include/cmsis_gcc.h **** #endif
  58:Drivers/CMSIS/Include/cmsis_gcc.h **** #ifndef   __WEAK
  59:Drivers/CMSIS/Include/cmsis_gcc.h ****   #define __WEAK                                 __attribute__((weak))
  60:Drivers/CMSIS/Include/cmsis_gcc.h **** #endif
  61:Drivers/CMSIS/Include/cmsis_gcc.h **** #ifndef   __PACKED
  62:Drivers/CMSIS/Include/cmsis_gcc.h ****   #define __PACKED                               __attribute__((packed, aligned(1)))
  63:Drivers/CMSIS/Include/cmsis_gcc.h **** #endif
  64:Drivers/CMSIS/Include/cmsis_gcc.h **** #ifndef   __PACKED_STRUCT
  65:Drivers/CMSIS/Include/cmsis_gcc.h ****   #define __PACKED_STRUCT                        struct __attribute__((packed, aligned(1)))
  66:Drivers/CMSIS/Include/cmsis_gcc.h **** #endif
  67:Drivers/CMSIS/Include/cmsis_gcc.h **** #ifndef   __PACKED_UNION
  68:Drivers/CMSIS/Include/cmsis_gcc.h ****   #define __PACKED_UNION                         union __attribute__((packed, aligned(1)))
  69:Drivers/CMSIS/Include/cmsis_gcc.h **** #endif
  70:Drivers/CMSIS/Include/cmsis_gcc.h **** #ifndef   __UNALIGNED_UINT32        /* deprecated */
  71:Drivers/CMSIS/Include/cmsis_gcc.h ****   #pragma GCC diagnostic push
  72:Drivers/CMSIS/Include/cmsis_gcc.h ****   #pragma GCC diagnostic ignored "-Wpacked"
  73:Drivers/CMSIS/Include/cmsis_gcc.h ****   #pragma GCC diagnostic ignored "-Wattributes"
  74:Drivers/CMSIS/Include/cmsis_gcc.h ****   struct __attribute__((packed)) T_UINT32 { uint32_t v; };
ARM GAS  C:\Users\wyx12\AppData\Local\Temp\ccLiZMYq.s 			page 6


  75:Drivers/CMSIS/Include/cmsis_gcc.h ****   #pragma GCC diagnostic pop
  76:Drivers/CMSIS/Include/cmsis_gcc.h ****   #define __UNALIGNED_UINT32(x)                  (((struct T_UINT32 *)(x))->v)
  77:Drivers/CMSIS/Include/cmsis_gcc.h **** #endif
  78:Drivers/CMSIS/Include/cmsis_gcc.h **** #ifndef   __UNALIGNED_UINT16_WRITE
  79:Drivers/CMSIS/Include/cmsis_gcc.h ****   #pragma GCC diagnostic push
  80:Drivers/CMSIS/Include/cmsis_gcc.h ****   #pragma GCC diagnostic ignored "-Wpacked"
  81:Drivers/CMSIS/Include/cmsis_gcc.h ****   #pragma GCC diagnostic ignored "-Wattributes"
  82:Drivers/CMSIS/Include/cmsis_gcc.h ****   __PACKED_STRUCT T_UINT16_WRITE { uint16_t v; };
  83:Drivers/CMSIS/Include/cmsis_gcc.h ****   #pragma GCC diagnostic pop
  84:Drivers/CMSIS/Include/cmsis_gcc.h ****   #define __UNALIGNED_UINT16_WRITE(addr, val)    (void)((((struct T_UINT16_WRITE *)(void *)(addr))-
  85:Drivers/CMSIS/Include/cmsis_gcc.h **** #endif
  86:Drivers/CMSIS/Include/cmsis_gcc.h **** #ifndef   __UNALIGNED_UINT16_READ
  87:Drivers/CMSIS/Include/cmsis_gcc.h ****   #pragma GCC diagnostic push
  88:Drivers/CMSIS/Include/cmsis_gcc.h ****   #pragma GCC diagnostic ignored "-Wpacked"
  89:Drivers/CMSIS/Include/cmsis_gcc.h ****   #pragma GCC diagnostic ignored "-Wattributes"
  90:Drivers/CMSIS/Include/cmsis_gcc.h ****   __PACKED_STRUCT T_UINT16_READ { uint16_t v; };
  91:Drivers/CMSIS/Include/cmsis_gcc.h ****   #pragma GCC diagnostic pop
  92:Drivers/CMSIS/Include/cmsis_gcc.h ****   #define __UNALIGNED_UINT16_READ(addr)          (((const struct T_UINT16_READ *)(const void *)(add
  93:Drivers/CMSIS/Include/cmsis_gcc.h **** #endif
  94:Drivers/CMSIS/Include/cmsis_gcc.h **** #ifndef   __UNALIGNED_UINT32_WRITE
  95:Drivers/CMSIS/Include/cmsis_gcc.h ****   #pragma GCC diagnostic push
  96:Drivers/CMSIS/Include/cmsis_gcc.h ****   #pragma GCC diagnostic ignored "-Wpacked"
  97:Drivers/CMSIS/Include/cmsis_gcc.h ****   #pragma GCC diagnostic ignored "-Wattributes"
  98:Drivers/CMSIS/Include/cmsis_gcc.h ****   __PACKED_STRUCT T_UINT32_WRITE { uint32_t v; };
  99:Drivers/CMSIS/Include/cmsis_gcc.h ****   #pragma GCC diagnostic pop
 100:Drivers/CMSIS/Include/cmsis_gcc.h ****   #define __UNALIGNED_UINT32_WRITE(addr, val)    (void)((((struct T_UINT32_WRITE *)(void *)(addr))-
 101:Drivers/CMSIS/Include/cmsis_gcc.h **** #endif
 102:Drivers/CMSIS/Include/cmsis_gcc.h **** #ifndef   __UNALIGNED_UINT32_READ
 103:Drivers/CMSIS/Include/cmsis_gcc.h ****   #pragma GCC diagnostic push
 104:Drivers/CMSIS/Include/cmsis_gcc.h ****   #pragma GCC diagnostic ignored "-Wpacked"
 105:Drivers/CMSIS/Include/cmsis_gcc.h ****   #pragma GCC diagnostic ignored "-Wattributes"
 106:Drivers/CMSIS/Include/cmsis_gcc.h ****   __PACKED_STRUCT T_UINT32_READ { uint32_t v; };
 107:Drivers/CMSIS/Include/cmsis_gcc.h ****   #pragma GCC diagnostic pop
 108:Drivers/CMSIS/Include/cmsis_gcc.h ****   #define __UNALIGNED_UINT32_READ(addr)          (((const struct T_UINT32_READ *)(const void *)(add
 109:Drivers/CMSIS/Include/cmsis_gcc.h **** #endif
 110:Drivers/CMSIS/Include/cmsis_gcc.h **** #ifndef   __ALIGNED
 111:Drivers/CMSIS/Include/cmsis_gcc.h ****   #define __ALIGNED(x)                           __attribute__((aligned(x)))
 112:Drivers/CMSIS/Include/cmsis_gcc.h **** #endif
 113:Drivers/CMSIS/Include/cmsis_gcc.h **** #ifndef   __RESTRICT
 114:Drivers/CMSIS/Include/cmsis_gcc.h ****   #define __RESTRICT                             __restrict
 115:Drivers/CMSIS/Include/cmsis_gcc.h **** #endif
 116:Drivers/CMSIS/Include/cmsis_gcc.h **** 
 117:Drivers/CMSIS/Include/cmsis_gcc.h **** 
 118:Drivers/CMSIS/Include/cmsis_gcc.h **** /* ###########################  Core Function Access  ########################### */
 119:Drivers/CMSIS/Include/cmsis_gcc.h **** /** \ingroup  CMSIS_Core_FunctionInterface
 120:Drivers/CMSIS/Include/cmsis_gcc.h ****     \defgroup CMSIS_Core_RegAccFunctions CMSIS Core Register Access Functions
 121:Drivers/CMSIS/Include/cmsis_gcc.h ****   @{
 122:Drivers/CMSIS/Include/cmsis_gcc.h ****  */
 123:Drivers/CMSIS/Include/cmsis_gcc.h **** 
 124:Drivers/CMSIS/Include/cmsis_gcc.h **** /**
 125:Drivers/CMSIS/Include/cmsis_gcc.h ****   \brief   Enable IRQ Interrupts
 126:Drivers/CMSIS/Include/cmsis_gcc.h ****   \details Enables IRQ interrupts by clearing the I-bit in the CPSR.
 127:Drivers/CMSIS/Include/cmsis_gcc.h ****            Can only be executed in Privileged modes.
 128:Drivers/CMSIS/Include/cmsis_gcc.h ****  */
 129:Drivers/CMSIS/Include/cmsis_gcc.h **** __STATIC_FORCEINLINE void __enable_irq(void)
 130:Drivers/CMSIS/Include/cmsis_gcc.h **** {
 131:Drivers/CMSIS/Include/cmsis_gcc.h ****   __ASM volatile ("cpsie i" : : : "memory");
ARM GAS  C:\Users\wyx12\AppData\Local\Temp\ccLiZMYq.s 			page 7


 132:Drivers/CMSIS/Include/cmsis_gcc.h **** }
 133:Drivers/CMSIS/Include/cmsis_gcc.h **** 
 134:Drivers/CMSIS/Include/cmsis_gcc.h **** 
 135:Drivers/CMSIS/Include/cmsis_gcc.h **** /**
 136:Drivers/CMSIS/Include/cmsis_gcc.h ****   \brief   Disable IRQ Interrupts
 137:Drivers/CMSIS/Include/cmsis_gcc.h ****   \details Disables IRQ interrupts by setting the I-bit in the CPSR.
 138:Drivers/CMSIS/Include/cmsis_gcc.h ****            Can only be executed in Privileged modes.
 139:Drivers/CMSIS/Include/cmsis_gcc.h ****  */
 140:Drivers/CMSIS/Include/cmsis_gcc.h **** __STATIC_FORCEINLINE void __disable_irq(void)
  37              		.loc 2 140 27 view .LVU2
  38              	.LBB638:
 141:Drivers/CMSIS/Include/cmsis_gcc.h **** {
 142:Drivers/CMSIS/Include/cmsis_gcc.h ****   __ASM volatile ("cpsid i" : : : "memory");
  39              		.loc 2 142 3 view .LVU3
  40              		.syntax unified
  41              	@ 142 "Drivers/CMSIS/Include/cmsis_gcc.h" 1
  42 0000 72B6     		cpsid i
  43              	@ 0 "" 2
  44              		.thumb
  45              		.syntax unified
  46              	.L2:
  47              	.LBE638:
  48              	.LBE637:
 177:Core/Src/main.cpp ****   while (1)
  49              		.loc 1 177 3 discriminator 1 view .LVU4
  50              		.loc 1 177 3 discriminator 1 view .LVU5
  51 0002 FEE7     		b	.L2
  52              		.cfi_endproc
  53              	.LFE1577:
  55              		.section	.text._Z18SystemClock_Configv,"ax",%progbits
  56              		.align	1
  57              		.global	_Z18SystemClock_Configv
  58              		.syntax unified
  59              		.thumb
  60              		.thumb_func
  62              	_Z18SystemClock_Configv:
  63              	.LFB1576:
 133:Core/Src/main.cpp ****   RCC_OscInitTypeDef RCC_OscInitStruct = {0};
  64              		.loc 1 133 1 view -0
  65              		.cfi_startproc
  66              		@ args = 0, pretend = 0, frame = 64
  67              		@ frame_needed = 0, uses_anonymous_args = 0
  68 0000 00B5     		push	{lr}
  69              	.LCFI0:
  70              		.cfi_def_cfa_offset 4
  71              		.cfi_offset 14, -4
  72 0002 91B0     		sub	sp, sp, #68
  73              	.LCFI1:
  74              		.cfi_def_cfa_offset 72
 134:Core/Src/main.cpp ****   RCC_ClkInitTypeDef RCC_ClkInitStruct = {0};
  75              		.loc 1 134 3 view .LVU7
 134:Core/Src/main.cpp ****   RCC_ClkInitTypeDef RCC_ClkInitStruct = {0};
  76              		.loc 1 134 22 is_stmt 0 view .LVU8
  77 0004 2822     		movs	r2, #40
  78 0006 0021     		movs	r1, #0
  79 0008 06A8     		add	r0, sp, #24
  80 000a FFF7FEFF 		bl	memset
ARM GAS  C:\Users\wyx12\AppData\Local\Temp\ccLiZMYq.s 			page 8


  81              	.LVL0:
 135:Core/Src/main.cpp **** 
  82              		.loc 1 135 3 is_stmt 1 view .LVU9
 135:Core/Src/main.cpp **** 
  83              		.loc 1 135 22 is_stmt 0 view .LVU10
  84 000e 0023     		movs	r3, #0
  85 0010 0193     		str	r3, [sp, #4]
  86 0012 0293     		str	r3, [sp, #8]
  87 0014 0393     		str	r3, [sp, #12]
  88 0016 0493     		str	r3, [sp, #16]
  89 0018 0593     		str	r3, [sp, #20]
 140:Core/Src/main.cpp ****   RCC_OscInitStruct.HSIState = RCC_HSI_ON;
  90              		.loc 1 140 3 is_stmt 1 view .LVU11
 140:Core/Src/main.cpp ****   RCC_OscInitStruct.HSIState = RCC_HSI_ON;
  91              		.loc 1 140 36 is_stmt 0 view .LVU12
  92 001a 0223     		movs	r3, #2
  93 001c 0693     		str	r3, [sp, #24]
 141:Core/Src/main.cpp ****   RCC_OscInitStruct.HSICalibrationValue = RCC_HSICALIBRATION_DEFAULT;
  94              		.loc 1 141 3 is_stmt 1 view .LVU13
 141:Core/Src/main.cpp ****   RCC_OscInitStruct.HSICalibrationValue = RCC_HSICALIBRATION_DEFAULT;
  95              		.loc 1 141 30 is_stmt 0 view .LVU14
  96 001e 0122     		movs	r2, #1
  97 0020 0A92     		str	r2, [sp, #40]
 142:Core/Src/main.cpp ****   RCC_OscInitStruct.PLL.PLLState = RCC_PLL_ON;
  98              		.loc 1 142 3 is_stmt 1 view .LVU15
 142:Core/Src/main.cpp ****   RCC_OscInitStruct.PLL.PLLState = RCC_PLL_ON;
  99              		.loc 1 142 41 is_stmt 0 view .LVU16
 100 0022 1022     		movs	r2, #16
 101 0024 0B92     		str	r2, [sp, #44]
 143:Core/Src/main.cpp ****   RCC_OscInitStruct.PLL.PLLSource = RCC_PLLSOURCE_HSI_DIV2;
 102              		.loc 1 143 3 is_stmt 1 view .LVU17
 143:Core/Src/main.cpp ****   RCC_OscInitStruct.PLL.PLLSource = RCC_PLLSOURCE_HSI_DIV2;
 103              		.loc 1 143 34 is_stmt 0 view .LVU18
 104 0026 0D93     		str	r3, [sp, #52]
 144:Core/Src/main.cpp ****   RCC_OscInitStruct.PLL.PLLMUL = RCC_PLL_MUL16;
 105              		.loc 1 144 3 is_stmt 1 view .LVU19
 145:Core/Src/main.cpp ****   if (HAL_RCC_OscConfig(&RCC_OscInitStruct) != HAL_OK)
 106              		.loc 1 145 3 view .LVU20
 145:Core/Src/main.cpp ****   if (HAL_RCC_OscConfig(&RCC_OscInitStruct) != HAL_OK)
 107              		.loc 1 145 32 is_stmt 0 view .LVU21
 108 0028 4FF46013 		mov	r3, #3670016
 109 002c 0F93     		str	r3, [sp, #60]
 146:Core/Src/main.cpp ****   {
 110              		.loc 1 146 3 is_stmt 1 view .LVU22
 146:Core/Src/main.cpp ****   {
 111              		.loc 1 146 24 is_stmt 0 view .LVU23
 112 002e 06A8     		add	r0, sp, #24
 113 0030 FFF7FEFF 		bl	HAL_RCC_OscConfig
 114              	.LVL1:
 146:Core/Src/main.cpp ****   {
 115              		.loc 1 146 3 view .LVU24
 116 0034 80B9     		cbnz	r0, .L7
 153:Core/Src/main.cpp ****   RCC_ClkInitStruct.SYSCLKSource = RCC_SYSCLKSOURCE_PLLCLK;
 117              		.loc 1 153 3 is_stmt 1 view .LVU25
 153:Core/Src/main.cpp ****   RCC_ClkInitStruct.SYSCLKSource = RCC_SYSCLKSOURCE_PLLCLK;
 118              		.loc 1 153 31 is_stmt 0 view .LVU26
 119 0036 0F23     		movs	r3, #15
ARM GAS  C:\Users\wyx12\AppData\Local\Temp\ccLiZMYq.s 			page 9


 120 0038 0193     		str	r3, [sp, #4]
 154:Core/Src/main.cpp ****   RCC_ClkInitStruct.AHBCLKDivider = RCC_SYSCLK_DIV1;
 121              		.loc 1 154 3 is_stmt 1 view .LVU27
 154:Core/Src/main.cpp ****   RCC_ClkInitStruct.AHBCLKDivider = RCC_SYSCLK_DIV1;
 122              		.loc 1 154 34 is_stmt 0 view .LVU28
 123 003a 0221     		movs	r1, #2
 124 003c 0291     		str	r1, [sp, #8]
 155:Core/Src/main.cpp ****   RCC_ClkInitStruct.APB1CLKDivider = RCC_HCLK_DIV2;
 125              		.loc 1 155 3 is_stmt 1 view .LVU29
 155:Core/Src/main.cpp ****   RCC_ClkInitStruct.APB1CLKDivider = RCC_HCLK_DIV2;
 126              		.loc 1 155 35 is_stmt 0 view .LVU30
 127 003e 0023     		movs	r3, #0
 128 0040 0393     		str	r3, [sp, #12]
 156:Core/Src/main.cpp ****   RCC_ClkInitStruct.APB2CLKDivider = RCC_HCLK_DIV1;
 129              		.loc 1 156 3 is_stmt 1 view .LVU31
 156:Core/Src/main.cpp ****   RCC_ClkInitStruct.APB2CLKDivider = RCC_HCLK_DIV1;
 130              		.loc 1 156 36 is_stmt 0 view .LVU32
 131 0042 4FF48062 		mov	r2, #1024
 132 0046 0492     		str	r2, [sp, #16]
 157:Core/Src/main.cpp **** 
 133              		.loc 1 157 3 is_stmt 1 view .LVU33
 157:Core/Src/main.cpp **** 
 134              		.loc 1 157 36 is_stmt 0 view .LVU34
 135 0048 0593     		str	r3, [sp, #20]
 159:Core/Src/main.cpp ****   {
 136              		.loc 1 159 3 is_stmt 1 view .LVU35
 159:Core/Src/main.cpp ****   {
 137              		.loc 1 159 26 is_stmt 0 view .LVU36
 138 004a 01A8     		add	r0, sp, #4
 139 004c FFF7FEFF 		bl	HAL_RCC_ClockConfig
 140              	.LVL2:
 159:Core/Src/main.cpp ****   {
 141              		.loc 1 159 3 view .LVU37
 142 0050 20B9     		cbnz	r0, .L8
 163:Core/Src/main.cpp **** 
 143              		.loc 1 163 1 view .LVU38
 144 0052 11B0     		add	sp, sp, #68
 145              	.LCFI2:
 146              		.cfi_remember_state
 147              		.cfi_def_cfa_offset 4
 148              		@ sp needed
 149 0054 5DF804FB 		ldr	pc, [sp], #4
 150              	.L7:
 151              	.LCFI3:
 152              		.cfi_restore_state
 148:Core/Src/main.cpp ****   }
 153              		.loc 1 148 5 is_stmt 1 view .LVU39
 148:Core/Src/main.cpp ****   }
 154              		.loc 1 148 18 is_stmt 0 view .LVU40
 155 0058 FFF7FEFF 		bl	Error_Handler
 156              	.LVL3:
 157              	.L8:
 161:Core/Src/main.cpp ****   }
 158              		.loc 1 161 5 is_stmt 1 view .LVU41
 161:Core/Src/main.cpp ****   }
 159              		.loc 1 161 18 is_stmt 0 view .LVU42
 160 005c FFF7FEFF 		bl	Error_Handler
ARM GAS  C:\Users\wyx12\AppData\Local\Temp\ccLiZMYq.s 			page 10


 161              	.LVL4:
 162              		.cfi_endproc
 163              	.LFE1576:
 165              		.section	.text._ZNSt12_Vector_baseINSt7__cxx1112basic_stringIcSt11char_traitsIcESaIcEEESaIS5_EED2E
 166              		.align	1
 167              		.weak	_ZNSt12_Vector_baseINSt7__cxx1112basic_stringIcSt11char_traitsIcESaIcEEESaIS5_EED2Ev
 168              		.syntax unified
 169              		.thumb
 170              		.thumb_func
 172              	_ZNSt12_Vector_baseINSt7__cxx1112basic_stringIcSt11char_traitsIcESaIcEEESaIS5_EED2Ev:
 173              	.LVL5:
 174              	.LFB1846:
 175              		.file 3 "c:\\program files (x86)\\arm gnu toolchain arm-none-eabi\\12.2 rel1\\arm-none-eabi\\inclu
   1:c:\program files (x86)\arm gnu toolchain arm-none-eabi\12.2 rel1\arm-none-eabi\include\c++\12.2.1\bits\stl_vector.h **** // Vector implementation -*- C++ -*-
   2:c:\program files (x86)\arm gnu toolchain arm-none-eabi\12.2 rel1\arm-none-eabi\include\c++\12.2.1\bits\stl_vector.h **** 
   3:c:\program files (x86)\arm gnu toolchain arm-none-eabi\12.2 rel1\arm-none-eabi\include\c++\12.2.1\bits\stl_vector.h **** // Copyright (C) 2001-2022 Free Software Foundation, Inc.
   4:c:\program files (x86)\arm gnu toolchain arm-none-eabi\12.2 rel1\arm-none-eabi\include\c++\12.2.1\bits\stl_vector.h **** //
   5:c:\program files (x86)\arm gnu toolchain arm-none-eabi\12.2 rel1\arm-none-eabi\include\c++\12.2.1\bits\stl_vector.h **** // This file is part of the GNU ISO C++ Library.  This library is free
   6:c:\program files (x86)\arm gnu toolchain arm-none-eabi\12.2 rel1\arm-none-eabi\include\c++\12.2.1\bits\stl_vector.h **** // software; you can redistribute it and/or modify it under the
   7:c:\program files (x86)\arm gnu toolchain arm-none-eabi\12.2 rel1\arm-none-eabi\include\c++\12.2.1\bits\stl_vector.h **** // terms of the GNU General Public License as published by the
   8:c:\program files (x86)\arm gnu toolchain arm-none-eabi\12.2 rel1\arm-none-eabi\include\c++\12.2.1\bits\stl_vector.h **** // Free Software Foundation; either version 3, or (at your option)
   9:c:\program files (x86)\arm gnu toolchain arm-none-eabi\12.2 rel1\arm-none-eabi\include\c++\12.2.1\bits\stl_vector.h **** // any later version.
  10:c:\program files (x86)\arm gnu toolchain arm-none-eabi\12.2 rel1\arm-none-eabi\include\c++\12.2.1\bits\stl_vector.h **** 
  11:c:\program files (x86)\arm gnu toolchain arm-none-eabi\12.2 rel1\arm-none-eabi\include\c++\12.2.1\bits\stl_vector.h **** // This library is distributed in the hope that it will be useful,
  12:c:\program files (x86)\arm gnu toolchain arm-none-eabi\12.2 rel1\arm-none-eabi\include\c++\12.2.1\bits\stl_vector.h **** // but WITHOUT ANY WARRANTY; without even the implied warranty of
  13:c:\program files (x86)\arm gnu toolchain arm-none-eabi\12.2 rel1\arm-none-eabi\include\c++\12.2.1\bits\stl_vector.h **** // MERCHANTABILITY or FITNESS FOR A PARTICULAR PURPOSE.  See the
  14:c:\program files (x86)\arm gnu toolchain arm-none-eabi\12.2 rel1\arm-none-eabi\include\c++\12.2.1\bits\stl_vector.h **** // GNU General Public License for more details.
  15:c:\program files (x86)\arm gnu toolchain arm-none-eabi\12.2 rel1\arm-none-eabi\include\c++\12.2.1\bits\stl_vector.h **** 
  16:c:\program files (x86)\arm gnu toolchain arm-none-eabi\12.2 rel1\arm-none-eabi\include\c++\12.2.1\bits\stl_vector.h **** // Under Section 7 of GPL version 3, you are granted additional
  17:c:\program files (x86)\arm gnu toolchain arm-none-eabi\12.2 rel1\arm-none-eabi\include\c++\12.2.1\bits\stl_vector.h **** // permissions described in the GCC Runtime Library Exception, version
  18:c:\program files (x86)\arm gnu toolchain arm-none-eabi\12.2 rel1\arm-none-eabi\include\c++\12.2.1\bits\stl_vector.h **** // 3.1, as published by the Free Software Foundation.
  19:c:\program files (x86)\arm gnu toolchain arm-none-eabi\12.2 rel1\arm-none-eabi\include\c++\12.2.1\bits\stl_vector.h **** 
  20:c:\program files (x86)\arm gnu toolchain arm-none-eabi\12.2 rel1\arm-none-eabi\include\c++\12.2.1\bits\stl_vector.h **** // You should have received a copy of the GNU General Public License and
  21:c:\program files (x86)\arm gnu toolchain arm-none-eabi\12.2 rel1\arm-none-eabi\include\c++\12.2.1\bits\stl_vector.h **** // a copy of the GCC Runtime Library Exception along with this program;
  22:c:\program files (x86)\arm gnu toolchain arm-none-eabi\12.2 rel1\arm-none-eabi\include\c++\12.2.1\bits\stl_vector.h **** // see the files COPYING3 and COPYING.RUNTIME respectively.  If not, see
  23:c:\program files (x86)\arm gnu toolchain arm-none-eabi\12.2 rel1\arm-none-eabi\include\c++\12.2.1\bits\stl_vector.h **** // <http://www.gnu.org/licenses/>.
  24:c:\program files (x86)\arm gnu toolchain arm-none-eabi\12.2 rel1\arm-none-eabi\include\c++\12.2.1\bits\stl_vector.h **** 
  25:c:\program files (x86)\arm gnu toolchain arm-none-eabi\12.2 rel1\arm-none-eabi\include\c++\12.2.1\bits\stl_vector.h **** /*
  26:c:\program files (x86)\arm gnu toolchain arm-none-eabi\12.2 rel1\arm-none-eabi\include\c++\12.2.1\bits\stl_vector.h ****  *
  27:c:\program files (x86)\arm gnu toolchain arm-none-eabi\12.2 rel1\arm-none-eabi\include\c++\12.2.1\bits\stl_vector.h ****  * Copyright (c) 1994
  28:c:\program files (x86)\arm gnu toolchain arm-none-eabi\12.2 rel1\arm-none-eabi\include\c++\12.2.1\bits\stl_vector.h ****  * Hewlett-Packard Company
  29:c:\program files (x86)\arm gnu toolchain arm-none-eabi\12.2 rel1\arm-none-eabi\include\c++\12.2.1\bits\stl_vector.h ****  *
  30:c:\program files (x86)\arm gnu toolchain arm-none-eabi\12.2 rel1\arm-none-eabi\include\c++\12.2.1\bits\stl_vector.h ****  * Permission to use, copy, modify, distribute and sell this software
  31:c:\program files (x86)\arm gnu toolchain arm-none-eabi\12.2 rel1\arm-none-eabi\include\c++\12.2.1\bits\stl_vector.h ****  * and its documentation for any purpose is hereby granted without fee,
  32:c:\program files (x86)\arm gnu toolchain arm-none-eabi\12.2 rel1\arm-none-eabi\include\c++\12.2.1\bits\stl_vector.h ****  * provided that the above copyright notice appear in all copies and
  33:c:\program files (x86)\arm gnu toolchain arm-none-eabi\12.2 rel1\arm-none-eabi\include\c++\12.2.1\bits\stl_vector.h ****  * that both that copyright notice and this permission notice appear
  34:c:\program files (x86)\arm gnu toolchain arm-none-eabi\12.2 rel1\arm-none-eabi\include\c++\12.2.1\bits\stl_vector.h ****  * in supporting documentation.  Hewlett-Packard Company makes no
  35:c:\program files (x86)\arm gnu toolchain arm-none-eabi\12.2 rel1\arm-none-eabi\include\c++\12.2.1\bits\stl_vector.h ****  * representations about the suitability of this software for any
  36:c:\program files (x86)\arm gnu toolchain arm-none-eabi\12.2 rel1\arm-none-eabi\include\c++\12.2.1\bits\stl_vector.h ****  * purpose.  It is provided "as is" without express or implied warranty.
  37:c:\program files (x86)\arm gnu toolchain arm-none-eabi\12.2 rel1\arm-none-eabi\include\c++\12.2.1\bits\stl_vector.h ****  *
  38:c:\program files (x86)\arm gnu toolchain arm-none-eabi\12.2 rel1\arm-none-eabi\include\c++\12.2.1\bits\stl_vector.h ****  *
  39:c:\program files (x86)\arm gnu toolchain arm-none-eabi\12.2 rel1\arm-none-eabi\include\c++\12.2.1\bits\stl_vector.h ****  * Copyright (c) 1996
  40:c:\program files (x86)\arm gnu toolchain arm-none-eabi\12.2 rel1\arm-none-eabi\include\c++\12.2.1\bits\stl_vector.h ****  * Silicon Graphics Computer Systems, Inc.
  41:c:\program files (x86)\arm gnu toolchain arm-none-eabi\12.2 rel1\arm-none-eabi\include\c++\12.2.1\bits\stl_vector.h ****  *
  42:c:\program files (x86)\arm gnu toolchain arm-none-eabi\12.2 rel1\arm-none-eabi\include\c++\12.2.1\bits\stl_vector.h ****  * Permission to use, copy, modify, distribute and sell this software
  43:c:\program files (x86)\arm gnu toolchain arm-none-eabi\12.2 rel1\arm-none-eabi\include\c++\12.2.1\bits\stl_vector.h ****  * and its documentation for any purpose is hereby granted without fee,
  44:c:\program files (x86)\arm gnu toolchain arm-none-eabi\12.2 rel1\arm-none-eabi\include\c++\12.2.1\bits\stl_vector.h ****  * provided that the above copyright notice appear in all copies and
ARM GAS  C:\Users\wyx12\AppData\Local\Temp\ccLiZMYq.s 			page 11


  45:c:\program files (x86)\arm gnu toolchain arm-none-eabi\12.2 rel1\arm-none-eabi\include\c++\12.2.1\bits\stl_vector.h ****  * that both that copyright notice and this permission notice appear
  46:c:\program files (x86)\arm gnu toolchain arm-none-eabi\12.2 rel1\arm-none-eabi\include\c++\12.2.1\bits\stl_vector.h ****  * in supporting documentation.  Silicon Graphics makes no
  47:c:\program files (x86)\arm gnu toolchain arm-none-eabi\12.2 rel1\arm-none-eabi\include\c++\12.2.1\bits\stl_vector.h ****  * representations about the suitability of this  software for any
  48:c:\program files (x86)\arm gnu toolchain arm-none-eabi\12.2 rel1\arm-none-eabi\include\c++\12.2.1\bits\stl_vector.h ****  * purpose.  It is provided "as is" without express or implied warranty.
  49:c:\program files (x86)\arm gnu toolchain arm-none-eabi\12.2 rel1\arm-none-eabi\include\c++\12.2.1\bits\stl_vector.h ****  */
  50:c:\program files (x86)\arm gnu toolchain arm-none-eabi\12.2 rel1\arm-none-eabi\include\c++\12.2.1\bits\stl_vector.h **** 
  51:c:\program files (x86)\arm gnu toolchain arm-none-eabi\12.2 rel1\arm-none-eabi\include\c++\12.2.1\bits\stl_vector.h **** /** @file bits/stl_vector.h
  52:c:\program files (x86)\arm gnu toolchain arm-none-eabi\12.2 rel1\arm-none-eabi\include\c++\12.2.1\bits\stl_vector.h ****  *  This is an internal header file, included by other library headers.
  53:c:\program files (x86)\arm gnu toolchain arm-none-eabi\12.2 rel1\arm-none-eabi\include\c++\12.2.1\bits\stl_vector.h ****  *  Do not attempt to use it directly. @headername{vector}
  54:c:\program files (x86)\arm gnu toolchain arm-none-eabi\12.2 rel1\arm-none-eabi\include\c++\12.2.1\bits\stl_vector.h ****  */
  55:c:\program files (x86)\arm gnu toolchain arm-none-eabi\12.2 rel1\arm-none-eabi\include\c++\12.2.1\bits\stl_vector.h **** 
  56:c:\program files (x86)\arm gnu toolchain arm-none-eabi\12.2 rel1\arm-none-eabi\include\c++\12.2.1\bits\stl_vector.h **** #ifndef _STL_VECTOR_H
  57:c:\program files (x86)\arm gnu toolchain arm-none-eabi\12.2 rel1\arm-none-eabi\include\c++\12.2.1\bits\stl_vector.h **** #define _STL_VECTOR_H 1
  58:c:\program files (x86)\arm gnu toolchain arm-none-eabi\12.2 rel1\arm-none-eabi\include\c++\12.2.1\bits\stl_vector.h **** 
  59:c:\program files (x86)\arm gnu toolchain arm-none-eabi\12.2 rel1\arm-none-eabi\include\c++\12.2.1\bits\stl_vector.h **** #include <bits/stl_iterator_base_funcs.h>
  60:c:\program files (x86)\arm gnu toolchain arm-none-eabi\12.2 rel1\arm-none-eabi\include\c++\12.2.1\bits\stl_vector.h **** #include <bits/functexcept.h>
  61:c:\program files (x86)\arm gnu toolchain arm-none-eabi\12.2 rel1\arm-none-eabi\include\c++\12.2.1\bits\stl_vector.h **** #include <bits/concept_check.h>
  62:c:\program files (x86)\arm gnu toolchain arm-none-eabi\12.2 rel1\arm-none-eabi\include\c++\12.2.1\bits\stl_vector.h **** #if __cplusplus >= 201103L
  63:c:\program files (x86)\arm gnu toolchain arm-none-eabi\12.2 rel1\arm-none-eabi\include\c++\12.2.1\bits\stl_vector.h **** #include <initializer_list>
  64:c:\program files (x86)\arm gnu toolchain arm-none-eabi\12.2 rel1\arm-none-eabi\include\c++\12.2.1\bits\stl_vector.h **** #endif
  65:c:\program files (x86)\arm gnu toolchain arm-none-eabi\12.2 rel1\arm-none-eabi\include\c++\12.2.1\bits\stl_vector.h **** #if __cplusplus >= 202002L
  66:c:\program files (x86)\arm gnu toolchain arm-none-eabi\12.2 rel1\arm-none-eabi\include\c++\12.2.1\bits\stl_vector.h **** # include <compare>
  67:c:\program files (x86)\arm gnu toolchain arm-none-eabi\12.2 rel1\arm-none-eabi\include\c++\12.2.1\bits\stl_vector.h **** #define __cpp_lib_constexpr_vector 201907L
  68:c:\program files (x86)\arm gnu toolchain arm-none-eabi\12.2 rel1\arm-none-eabi\include\c++\12.2.1\bits\stl_vector.h **** #endif
  69:c:\program files (x86)\arm gnu toolchain arm-none-eabi\12.2 rel1\arm-none-eabi\include\c++\12.2.1\bits\stl_vector.h **** 
  70:c:\program files (x86)\arm gnu toolchain arm-none-eabi\12.2 rel1\arm-none-eabi\include\c++\12.2.1\bits\stl_vector.h **** #include <debug/assertions.h>
  71:c:\program files (x86)\arm gnu toolchain arm-none-eabi\12.2 rel1\arm-none-eabi\include\c++\12.2.1\bits\stl_vector.h **** 
  72:c:\program files (x86)\arm gnu toolchain arm-none-eabi\12.2 rel1\arm-none-eabi\include\c++\12.2.1\bits\stl_vector.h **** #if _GLIBCXX_SANITIZE_STD_ALLOCATOR && _GLIBCXX_SANITIZE_VECTOR
  73:c:\program files (x86)\arm gnu toolchain arm-none-eabi\12.2 rel1\arm-none-eabi\include\c++\12.2.1\bits\stl_vector.h **** extern "C" void
  74:c:\program files (x86)\arm gnu toolchain arm-none-eabi\12.2 rel1\arm-none-eabi\include\c++\12.2.1\bits\stl_vector.h **** __sanitizer_annotate_contiguous_container(const void*, const void*,
  75:c:\program files (x86)\arm gnu toolchain arm-none-eabi\12.2 rel1\arm-none-eabi\include\c++\12.2.1\bits\stl_vector.h **** 					  const void*, const void*);
  76:c:\program files (x86)\arm gnu toolchain arm-none-eabi\12.2 rel1\arm-none-eabi\include\c++\12.2.1\bits\stl_vector.h **** #endif
  77:c:\program files (x86)\arm gnu toolchain arm-none-eabi\12.2 rel1\arm-none-eabi\include\c++\12.2.1\bits\stl_vector.h **** 
  78:c:\program files (x86)\arm gnu toolchain arm-none-eabi\12.2 rel1\arm-none-eabi\include\c++\12.2.1\bits\stl_vector.h **** namespace std _GLIBCXX_VISIBILITY(default)
  79:c:\program files (x86)\arm gnu toolchain arm-none-eabi\12.2 rel1\arm-none-eabi\include\c++\12.2.1\bits\stl_vector.h **** {
  80:c:\program files (x86)\arm gnu toolchain arm-none-eabi\12.2 rel1\arm-none-eabi\include\c++\12.2.1\bits\stl_vector.h **** _GLIBCXX_BEGIN_NAMESPACE_VERSION
  81:c:\program files (x86)\arm gnu toolchain arm-none-eabi\12.2 rel1\arm-none-eabi\include\c++\12.2.1\bits\stl_vector.h **** _GLIBCXX_BEGIN_NAMESPACE_CONTAINER
  82:c:\program files (x86)\arm gnu toolchain arm-none-eabi\12.2 rel1\arm-none-eabi\include\c++\12.2.1\bits\stl_vector.h **** 
  83:c:\program files (x86)\arm gnu toolchain arm-none-eabi\12.2 rel1\arm-none-eabi\include\c++\12.2.1\bits\stl_vector.h ****   /// See bits/stl_deque.h's _Deque_base for an explanation.
  84:c:\program files (x86)\arm gnu toolchain arm-none-eabi\12.2 rel1\arm-none-eabi\include\c++\12.2.1\bits\stl_vector.h ****   template<typename _Tp, typename _Alloc>
  85:c:\program files (x86)\arm gnu toolchain arm-none-eabi\12.2 rel1\arm-none-eabi\include\c++\12.2.1\bits\stl_vector.h ****     struct _Vector_base
  86:c:\program files (x86)\arm gnu toolchain arm-none-eabi\12.2 rel1\arm-none-eabi\include\c++\12.2.1\bits\stl_vector.h ****     {
  87:c:\program files (x86)\arm gnu toolchain arm-none-eabi\12.2 rel1\arm-none-eabi\include\c++\12.2.1\bits\stl_vector.h ****       typedef typename __gnu_cxx::__alloc_traits<_Alloc>::template
  88:c:\program files (x86)\arm gnu toolchain arm-none-eabi\12.2 rel1\arm-none-eabi\include\c++\12.2.1\bits\stl_vector.h **** 	rebind<_Tp>::other _Tp_alloc_type;
  89:c:\program files (x86)\arm gnu toolchain arm-none-eabi\12.2 rel1\arm-none-eabi\include\c++\12.2.1\bits\stl_vector.h ****       typedef typename __gnu_cxx::__alloc_traits<_Tp_alloc_type>::pointer
  90:c:\program files (x86)\arm gnu toolchain arm-none-eabi\12.2 rel1\arm-none-eabi\include\c++\12.2.1\bits\stl_vector.h ****        	pointer;
  91:c:\program files (x86)\arm gnu toolchain arm-none-eabi\12.2 rel1\arm-none-eabi\include\c++\12.2.1\bits\stl_vector.h **** 
  92:c:\program files (x86)\arm gnu toolchain arm-none-eabi\12.2 rel1\arm-none-eabi\include\c++\12.2.1\bits\stl_vector.h ****       struct _Vector_impl_data
  93:c:\program files (x86)\arm gnu toolchain arm-none-eabi\12.2 rel1\arm-none-eabi\include\c++\12.2.1\bits\stl_vector.h ****       {
  94:c:\program files (x86)\arm gnu toolchain arm-none-eabi\12.2 rel1\arm-none-eabi\include\c++\12.2.1\bits\stl_vector.h **** 	pointer _M_start;
  95:c:\program files (x86)\arm gnu toolchain arm-none-eabi\12.2 rel1\arm-none-eabi\include\c++\12.2.1\bits\stl_vector.h **** 	pointer _M_finish;
  96:c:\program files (x86)\arm gnu toolchain arm-none-eabi\12.2 rel1\arm-none-eabi\include\c++\12.2.1\bits\stl_vector.h **** 	pointer _M_end_of_storage;
  97:c:\program files (x86)\arm gnu toolchain arm-none-eabi\12.2 rel1\arm-none-eabi\include\c++\12.2.1\bits\stl_vector.h **** 
  98:c:\program files (x86)\arm gnu toolchain arm-none-eabi\12.2 rel1\arm-none-eabi\include\c++\12.2.1\bits\stl_vector.h **** 	_GLIBCXX20_CONSTEXPR
  99:c:\program files (x86)\arm gnu toolchain arm-none-eabi\12.2 rel1\arm-none-eabi\include\c++\12.2.1\bits\stl_vector.h **** 	_Vector_impl_data() _GLIBCXX_NOEXCEPT
 100:c:\program files (x86)\arm gnu toolchain arm-none-eabi\12.2 rel1\arm-none-eabi\include\c++\12.2.1\bits\stl_vector.h **** 	: _M_start(), _M_finish(), _M_end_of_storage()
 101:c:\program files (x86)\arm gnu toolchain arm-none-eabi\12.2 rel1\arm-none-eabi\include\c++\12.2.1\bits\stl_vector.h **** 	{ }
ARM GAS  C:\Users\wyx12\AppData\Local\Temp\ccLiZMYq.s 			page 12


 102:c:\program files (x86)\arm gnu toolchain arm-none-eabi\12.2 rel1\arm-none-eabi\include\c++\12.2.1\bits\stl_vector.h **** 
 103:c:\program files (x86)\arm gnu toolchain arm-none-eabi\12.2 rel1\arm-none-eabi\include\c++\12.2.1\bits\stl_vector.h **** #if __cplusplus >= 201103L
 104:c:\program files (x86)\arm gnu toolchain arm-none-eabi\12.2 rel1\arm-none-eabi\include\c++\12.2.1\bits\stl_vector.h **** 	_GLIBCXX20_CONSTEXPR
 105:c:\program files (x86)\arm gnu toolchain arm-none-eabi\12.2 rel1\arm-none-eabi\include\c++\12.2.1\bits\stl_vector.h **** 	_Vector_impl_data(_Vector_impl_data&& __x) noexcept
 106:c:\program files (x86)\arm gnu toolchain arm-none-eabi\12.2 rel1\arm-none-eabi\include\c++\12.2.1\bits\stl_vector.h **** 	: _M_start(__x._M_start), _M_finish(__x._M_finish),
 107:c:\program files (x86)\arm gnu toolchain arm-none-eabi\12.2 rel1\arm-none-eabi\include\c++\12.2.1\bits\stl_vector.h **** 	  _M_end_of_storage(__x._M_end_of_storage)
 108:c:\program files (x86)\arm gnu toolchain arm-none-eabi\12.2 rel1\arm-none-eabi\include\c++\12.2.1\bits\stl_vector.h **** 	{ __x._M_start = __x._M_finish = __x._M_end_of_storage = pointer(); }
 109:c:\program files (x86)\arm gnu toolchain arm-none-eabi\12.2 rel1\arm-none-eabi\include\c++\12.2.1\bits\stl_vector.h **** #endif
 110:c:\program files (x86)\arm gnu toolchain arm-none-eabi\12.2 rel1\arm-none-eabi\include\c++\12.2.1\bits\stl_vector.h **** 
 111:c:\program files (x86)\arm gnu toolchain arm-none-eabi\12.2 rel1\arm-none-eabi\include\c++\12.2.1\bits\stl_vector.h **** 	_GLIBCXX20_CONSTEXPR
 112:c:\program files (x86)\arm gnu toolchain arm-none-eabi\12.2 rel1\arm-none-eabi\include\c++\12.2.1\bits\stl_vector.h **** 	void
 113:c:\program files (x86)\arm gnu toolchain arm-none-eabi\12.2 rel1\arm-none-eabi\include\c++\12.2.1\bits\stl_vector.h **** 	_M_copy_data(_Vector_impl_data const& __x) _GLIBCXX_NOEXCEPT
 114:c:\program files (x86)\arm gnu toolchain arm-none-eabi\12.2 rel1\arm-none-eabi\include\c++\12.2.1\bits\stl_vector.h **** 	{
 115:c:\program files (x86)\arm gnu toolchain arm-none-eabi\12.2 rel1\arm-none-eabi\include\c++\12.2.1\bits\stl_vector.h **** 	  _M_start = __x._M_start;
 116:c:\program files (x86)\arm gnu toolchain arm-none-eabi\12.2 rel1\arm-none-eabi\include\c++\12.2.1\bits\stl_vector.h **** 	  _M_finish = __x._M_finish;
 117:c:\program files (x86)\arm gnu toolchain arm-none-eabi\12.2 rel1\arm-none-eabi\include\c++\12.2.1\bits\stl_vector.h **** 	  _M_end_of_storage = __x._M_end_of_storage;
 118:c:\program files (x86)\arm gnu toolchain arm-none-eabi\12.2 rel1\arm-none-eabi\include\c++\12.2.1\bits\stl_vector.h **** 	}
 119:c:\program files (x86)\arm gnu toolchain arm-none-eabi\12.2 rel1\arm-none-eabi\include\c++\12.2.1\bits\stl_vector.h **** 
 120:c:\program files (x86)\arm gnu toolchain arm-none-eabi\12.2 rel1\arm-none-eabi\include\c++\12.2.1\bits\stl_vector.h **** 	_GLIBCXX20_CONSTEXPR
 121:c:\program files (x86)\arm gnu toolchain arm-none-eabi\12.2 rel1\arm-none-eabi\include\c++\12.2.1\bits\stl_vector.h **** 	void
 122:c:\program files (x86)\arm gnu toolchain arm-none-eabi\12.2 rel1\arm-none-eabi\include\c++\12.2.1\bits\stl_vector.h **** 	_M_swap_data(_Vector_impl_data& __x) _GLIBCXX_NOEXCEPT
 123:c:\program files (x86)\arm gnu toolchain arm-none-eabi\12.2 rel1\arm-none-eabi\include\c++\12.2.1\bits\stl_vector.h **** 	{
 124:c:\program files (x86)\arm gnu toolchain arm-none-eabi\12.2 rel1\arm-none-eabi\include\c++\12.2.1\bits\stl_vector.h **** 	  // Do not use std::swap(_M_start, __x._M_start), etc as it loses
 125:c:\program files (x86)\arm gnu toolchain arm-none-eabi\12.2 rel1\arm-none-eabi\include\c++\12.2.1\bits\stl_vector.h **** 	  // information used by TBAA.
 126:c:\program files (x86)\arm gnu toolchain arm-none-eabi\12.2 rel1\arm-none-eabi\include\c++\12.2.1\bits\stl_vector.h **** 	  _Vector_impl_data __tmp;
 127:c:\program files (x86)\arm gnu toolchain arm-none-eabi\12.2 rel1\arm-none-eabi\include\c++\12.2.1\bits\stl_vector.h **** 	  __tmp._M_copy_data(*this);
 128:c:\program files (x86)\arm gnu toolchain arm-none-eabi\12.2 rel1\arm-none-eabi\include\c++\12.2.1\bits\stl_vector.h **** 	  _M_copy_data(__x);
 129:c:\program files (x86)\arm gnu toolchain arm-none-eabi\12.2 rel1\arm-none-eabi\include\c++\12.2.1\bits\stl_vector.h **** 	  __x._M_copy_data(__tmp);
 130:c:\program files (x86)\arm gnu toolchain arm-none-eabi\12.2 rel1\arm-none-eabi\include\c++\12.2.1\bits\stl_vector.h **** 	}
 131:c:\program files (x86)\arm gnu toolchain arm-none-eabi\12.2 rel1\arm-none-eabi\include\c++\12.2.1\bits\stl_vector.h ****       };
 132:c:\program files (x86)\arm gnu toolchain arm-none-eabi\12.2 rel1\arm-none-eabi\include\c++\12.2.1\bits\stl_vector.h **** 
 133:c:\program files (x86)\arm gnu toolchain arm-none-eabi\12.2 rel1\arm-none-eabi\include\c++\12.2.1\bits\stl_vector.h ****       struct _Vector_impl
 134:c:\program files (x86)\arm gnu toolchain arm-none-eabi\12.2 rel1\arm-none-eabi\include\c++\12.2.1\bits\stl_vector.h **** 	: public _Tp_alloc_type, public _Vector_impl_data
 135:c:\program files (x86)\arm gnu toolchain arm-none-eabi\12.2 rel1\arm-none-eabi\include\c++\12.2.1\bits\stl_vector.h ****       {
 136:c:\program files (x86)\arm gnu toolchain arm-none-eabi\12.2 rel1\arm-none-eabi\include\c++\12.2.1\bits\stl_vector.h **** 	_GLIBCXX20_CONSTEXPR
 137:c:\program files (x86)\arm gnu toolchain arm-none-eabi\12.2 rel1\arm-none-eabi\include\c++\12.2.1\bits\stl_vector.h **** 	_Vector_impl() _GLIBCXX_NOEXCEPT_IF(
 138:c:\program files (x86)\arm gnu toolchain arm-none-eabi\12.2 rel1\arm-none-eabi\include\c++\12.2.1\bits\stl_vector.h **** 	    is_nothrow_default_constructible<_Tp_alloc_type>::value)
 139:c:\program files (x86)\arm gnu toolchain arm-none-eabi\12.2 rel1\arm-none-eabi\include\c++\12.2.1\bits\stl_vector.h **** 	: _Tp_alloc_type()
 140:c:\program files (x86)\arm gnu toolchain arm-none-eabi\12.2 rel1\arm-none-eabi\include\c++\12.2.1\bits\stl_vector.h **** 	{ }
 141:c:\program files (x86)\arm gnu toolchain arm-none-eabi\12.2 rel1\arm-none-eabi\include\c++\12.2.1\bits\stl_vector.h **** 
 142:c:\program files (x86)\arm gnu toolchain arm-none-eabi\12.2 rel1\arm-none-eabi\include\c++\12.2.1\bits\stl_vector.h **** 	_GLIBCXX20_CONSTEXPR
 143:c:\program files (x86)\arm gnu toolchain arm-none-eabi\12.2 rel1\arm-none-eabi\include\c++\12.2.1\bits\stl_vector.h **** 	_Vector_impl(_Tp_alloc_type const& __a) _GLIBCXX_NOEXCEPT
 144:c:\program files (x86)\arm gnu toolchain arm-none-eabi\12.2 rel1\arm-none-eabi\include\c++\12.2.1\bits\stl_vector.h **** 	: _Tp_alloc_type(__a)
 145:c:\program files (x86)\arm gnu toolchain arm-none-eabi\12.2 rel1\arm-none-eabi\include\c++\12.2.1\bits\stl_vector.h **** 	{ }
 146:c:\program files (x86)\arm gnu toolchain arm-none-eabi\12.2 rel1\arm-none-eabi\include\c++\12.2.1\bits\stl_vector.h **** 
 147:c:\program files (x86)\arm gnu toolchain arm-none-eabi\12.2 rel1\arm-none-eabi\include\c++\12.2.1\bits\stl_vector.h **** #if __cplusplus >= 201103L
 148:c:\program files (x86)\arm gnu toolchain arm-none-eabi\12.2 rel1\arm-none-eabi\include\c++\12.2.1\bits\stl_vector.h **** 	// Not defaulted, to enforce noexcept(true) even when
 149:c:\program files (x86)\arm gnu toolchain arm-none-eabi\12.2 rel1\arm-none-eabi\include\c++\12.2.1\bits\stl_vector.h **** 	// !is_nothrow_move_constructible<_Tp_alloc_type>.
 150:c:\program files (x86)\arm gnu toolchain arm-none-eabi\12.2 rel1\arm-none-eabi\include\c++\12.2.1\bits\stl_vector.h **** 	_GLIBCXX20_CONSTEXPR
 151:c:\program files (x86)\arm gnu toolchain arm-none-eabi\12.2 rel1\arm-none-eabi\include\c++\12.2.1\bits\stl_vector.h **** 	_Vector_impl(_Vector_impl&& __x) noexcept
 152:c:\program files (x86)\arm gnu toolchain arm-none-eabi\12.2 rel1\arm-none-eabi\include\c++\12.2.1\bits\stl_vector.h **** 	: _Tp_alloc_type(std::move(__x)), _Vector_impl_data(std::move(__x))
 153:c:\program files (x86)\arm gnu toolchain arm-none-eabi\12.2 rel1\arm-none-eabi\include\c++\12.2.1\bits\stl_vector.h **** 	{ }
 154:c:\program files (x86)\arm gnu toolchain arm-none-eabi\12.2 rel1\arm-none-eabi\include\c++\12.2.1\bits\stl_vector.h **** 
 155:c:\program files (x86)\arm gnu toolchain arm-none-eabi\12.2 rel1\arm-none-eabi\include\c++\12.2.1\bits\stl_vector.h **** 	_GLIBCXX20_CONSTEXPR
 156:c:\program files (x86)\arm gnu toolchain arm-none-eabi\12.2 rel1\arm-none-eabi\include\c++\12.2.1\bits\stl_vector.h **** 	_Vector_impl(_Tp_alloc_type&& __a) noexcept
 157:c:\program files (x86)\arm gnu toolchain arm-none-eabi\12.2 rel1\arm-none-eabi\include\c++\12.2.1\bits\stl_vector.h **** 	: _Tp_alloc_type(std::move(__a))
 158:c:\program files (x86)\arm gnu toolchain arm-none-eabi\12.2 rel1\arm-none-eabi\include\c++\12.2.1\bits\stl_vector.h **** 	{ }
ARM GAS  C:\Users\wyx12\AppData\Local\Temp\ccLiZMYq.s 			page 13


 159:c:\program files (x86)\arm gnu toolchain arm-none-eabi\12.2 rel1\arm-none-eabi\include\c++\12.2.1\bits\stl_vector.h **** 
 160:c:\program files (x86)\arm gnu toolchain arm-none-eabi\12.2 rel1\arm-none-eabi\include\c++\12.2.1\bits\stl_vector.h **** 	_GLIBCXX20_CONSTEXPR
 161:c:\program files (x86)\arm gnu toolchain arm-none-eabi\12.2 rel1\arm-none-eabi\include\c++\12.2.1\bits\stl_vector.h **** 	_Vector_impl(_Tp_alloc_type&& __a, _Vector_impl&& __rv) noexcept
 162:c:\program files (x86)\arm gnu toolchain arm-none-eabi\12.2 rel1\arm-none-eabi\include\c++\12.2.1\bits\stl_vector.h **** 	: _Tp_alloc_type(std::move(__a)), _Vector_impl_data(std::move(__rv))
 163:c:\program files (x86)\arm gnu toolchain arm-none-eabi\12.2 rel1\arm-none-eabi\include\c++\12.2.1\bits\stl_vector.h **** 	{ }
 164:c:\program files (x86)\arm gnu toolchain arm-none-eabi\12.2 rel1\arm-none-eabi\include\c++\12.2.1\bits\stl_vector.h **** #endif
 165:c:\program files (x86)\arm gnu toolchain arm-none-eabi\12.2 rel1\arm-none-eabi\include\c++\12.2.1\bits\stl_vector.h **** 
 166:c:\program files (x86)\arm gnu toolchain arm-none-eabi\12.2 rel1\arm-none-eabi\include\c++\12.2.1\bits\stl_vector.h **** #if _GLIBCXX_SANITIZE_STD_ALLOCATOR && _GLIBCXX_SANITIZE_VECTOR
 167:c:\program files (x86)\arm gnu toolchain arm-none-eabi\12.2 rel1\arm-none-eabi\include\c++\12.2.1\bits\stl_vector.h **** 	template<typename = _Tp_alloc_type>
 168:c:\program files (x86)\arm gnu toolchain arm-none-eabi\12.2 rel1\arm-none-eabi\include\c++\12.2.1\bits\stl_vector.h **** 	  struct _Asan
 169:c:\program files (x86)\arm gnu toolchain arm-none-eabi\12.2 rel1\arm-none-eabi\include\c++\12.2.1\bits\stl_vector.h **** 	  {
 170:c:\program files (x86)\arm gnu toolchain arm-none-eabi\12.2 rel1\arm-none-eabi\include\c++\12.2.1\bits\stl_vector.h **** 	    typedef typename __gnu_cxx::__alloc_traits<_Tp_alloc_type>
 171:c:\program files (x86)\arm gnu toolchain arm-none-eabi\12.2 rel1\arm-none-eabi\include\c++\12.2.1\bits\stl_vector.h **** 	      ::size_type size_type;
 172:c:\program files (x86)\arm gnu toolchain arm-none-eabi\12.2 rel1\arm-none-eabi\include\c++\12.2.1\bits\stl_vector.h **** 
 173:c:\program files (x86)\arm gnu toolchain arm-none-eabi\12.2 rel1\arm-none-eabi\include\c++\12.2.1\bits\stl_vector.h **** 	    static _GLIBCXX20_CONSTEXPR void
 174:c:\program files (x86)\arm gnu toolchain arm-none-eabi\12.2 rel1\arm-none-eabi\include\c++\12.2.1\bits\stl_vector.h **** 	    _S_shrink(_Vector_impl&, size_type) { }
 175:c:\program files (x86)\arm gnu toolchain arm-none-eabi\12.2 rel1\arm-none-eabi\include\c++\12.2.1\bits\stl_vector.h **** 	    static _GLIBCXX20_CONSTEXPR void
 176:c:\program files (x86)\arm gnu toolchain arm-none-eabi\12.2 rel1\arm-none-eabi\include\c++\12.2.1\bits\stl_vector.h **** 	    _S_on_dealloc(_Vector_impl&) { }
 177:c:\program files (x86)\arm gnu toolchain arm-none-eabi\12.2 rel1\arm-none-eabi\include\c++\12.2.1\bits\stl_vector.h **** 
 178:c:\program files (x86)\arm gnu toolchain arm-none-eabi\12.2 rel1\arm-none-eabi\include\c++\12.2.1\bits\stl_vector.h **** 	    typedef _Vector_impl& _Reinit;
 179:c:\program files (x86)\arm gnu toolchain arm-none-eabi\12.2 rel1\arm-none-eabi\include\c++\12.2.1\bits\stl_vector.h **** 
 180:c:\program files (x86)\arm gnu toolchain arm-none-eabi\12.2 rel1\arm-none-eabi\include\c++\12.2.1\bits\stl_vector.h **** 	    struct _Grow
 181:c:\program files (x86)\arm gnu toolchain arm-none-eabi\12.2 rel1\arm-none-eabi\include\c++\12.2.1\bits\stl_vector.h **** 	    {
 182:c:\program files (x86)\arm gnu toolchain arm-none-eabi\12.2 rel1\arm-none-eabi\include\c++\12.2.1\bits\stl_vector.h **** 	      _GLIBCXX20_CONSTEXPR _Grow(_Vector_impl&, size_type) { }
 183:c:\program files (x86)\arm gnu toolchain arm-none-eabi\12.2 rel1\arm-none-eabi\include\c++\12.2.1\bits\stl_vector.h **** 	      _GLIBCXX20_CONSTEXPR void _M_grew(size_type) { }
 184:c:\program files (x86)\arm gnu toolchain arm-none-eabi\12.2 rel1\arm-none-eabi\include\c++\12.2.1\bits\stl_vector.h **** 	    };
 185:c:\program files (x86)\arm gnu toolchain arm-none-eabi\12.2 rel1\arm-none-eabi\include\c++\12.2.1\bits\stl_vector.h **** 	  };
 186:c:\program files (x86)\arm gnu toolchain arm-none-eabi\12.2 rel1\arm-none-eabi\include\c++\12.2.1\bits\stl_vector.h **** 
 187:c:\program files (x86)\arm gnu toolchain arm-none-eabi\12.2 rel1\arm-none-eabi\include\c++\12.2.1\bits\stl_vector.h **** 	// Enable ASan annotations for memory obtained from std::allocator.
 188:c:\program files (x86)\arm gnu toolchain arm-none-eabi\12.2 rel1\arm-none-eabi\include\c++\12.2.1\bits\stl_vector.h **** 	template<typename _Up>
 189:c:\program files (x86)\arm gnu toolchain arm-none-eabi\12.2 rel1\arm-none-eabi\include\c++\12.2.1\bits\stl_vector.h **** 	  struct _Asan<allocator<_Up> >
 190:c:\program files (x86)\arm gnu toolchain arm-none-eabi\12.2 rel1\arm-none-eabi\include\c++\12.2.1\bits\stl_vector.h **** 	  {
 191:c:\program files (x86)\arm gnu toolchain arm-none-eabi\12.2 rel1\arm-none-eabi\include\c++\12.2.1\bits\stl_vector.h **** 	    typedef typename __gnu_cxx::__alloc_traits<_Tp_alloc_type>
 192:c:\program files (x86)\arm gnu toolchain arm-none-eabi\12.2 rel1\arm-none-eabi\include\c++\12.2.1\bits\stl_vector.h **** 	      ::size_type size_type;
 193:c:\program files (x86)\arm gnu toolchain arm-none-eabi\12.2 rel1\arm-none-eabi\include\c++\12.2.1\bits\stl_vector.h **** 
 194:c:\program files (x86)\arm gnu toolchain arm-none-eabi\12.2 rel1\arm-none-eabi\include\c++\12.2.1\bits\stl_vector.h **** 	    // Adjust ASan annotation for [_M_start, _M_end_of_storage) to
 195:c:\program files (x86)\arm gnu toolchain arm-none-eabi\12.2 rel1\arm-none-eabi\include\c++\12.2.1\bits\stl_vector.h **** 	    // mark end of valid region as __curr instead of __prev.
 196:c:\program files (x86)\arm gnu toolchain arm-none-eabi\12.2 rel1\arm-none-eabi\include\c++\12.2.1\bits\stl_vector.h **** 	    static _GLIBCXX20_CONSTEXPR void
 197:c:\program files (x86)\arm gnu toolchain arm-none-eabi\12.2 rel1\arm-none-eabi\include\c++\12.2.1\bits\stl_vector.h **** 	    _S_adjust(_Vector_impl& __impl, pointer __prev, pointer __curr)
 198:c:\program files (x86)\arm gnu toolchain arm-none-eabi\12.2 rel1\arm-none-eabi\include\c++\12.2.1\bits\stl_vector.h **** 	    {
 199:c:\program files (x86)\arm gnu toolchain arm-none-eabi\12.2 rel1\arm-none-eabi\include\c++\12.2.1\bits\stl_vector.h **** #if __cpp_lib_is_constant_evaluated
 200:c:\program files (x86)\arm gnu toolchain arm-none-eabi\12.2 rel1\arm-none-eabi\include\c++\12.2.1\bits\stl_vector.h **** 	      if (std::is_constant_evaluated())
 201:c:\program files (x86)\arm gnu toolchain arm-none-eabi\12.2 rel1\arm-none-eabi\include\c++\12.2.1\bits\stl_vector.h **** 		return;
 202:c:\program files (x86)\arm gnu toolchain arm-none-eabi\12.2 rel1\arm-none-eabi\include\c++\12.2.1\bits\stl_vector.h **** #endif
 203:c:\program files (x86)\arm gnu toolchain arm-none-eabi\12.2 rel1\arm-none-eabi\include\c++\12.2.1\bits\stl_vector.h **** 	      __sanitizer_annotate_contiguous_container(__impl._M_start,
 204:c:\program files (x86)\arm gnu toolchain arm-none-eabi\12.2 rel1\arm-none-eabi\include\c++\12.2.1\bits\stl_vector.h **** 		  __impl._M_end_of_storage, __prev, __curr);
 205:c:\program files (x86)\arm gnu toolchain arm-none-eabi\12.2 rel1\arm-none-eabi\include\c++\12.2.1\bits\stl_vector.h **** 	    }
 206:c:\program files (x86)\arm gnu toolchain arm-none-eabi\12.2 rel1\arm-none-eabi\include\c++\12.2.1\bits\stl_vector.h **** 
 207:c:\program files (x86)\arm gnu toolchain arm-none-eabi\12.2 rel1\arm-none-eabi\include\c++\12.2.1\bits\stl_vector.h **** 	    static _GLIBCXX20_CONSTEXPR void
 208:c:\program files (x86)\arm gnu toolchain arm-none-eabi\12.2 rel1\arm-none-eabi\include\c++\12.2.1\bits\stl_vector.h **** 	    _S_grow(_Vector_impl& __impl, size_type __n)
 209:c:\program files (x86)\arm gnu toolchain arm-none-eabi\12.2 rel1\arm-none-eabi\include\c++\12.2.1\bits\stl_vector.h **** 	    { _S_adjust(__impl, __impl._M_finish, __impl._M_finish + __n); }
 210:c:\program files (x86)\arm gnu toolchain arm-none-eabi\12.2 rel1\arm-none-eabi\include\c++\12.2.1\bits\stl_vector.h **** 
 211:c:\program files (x86)\arm gnu toolchain arm-none-eabi\12.2 rel1\arm-none-eabi\include\c++\12.2.1\bits\stl_vector.h **** 	    static _GLIBCXX20_CONSTEXPR void
 212:c:\program files (x86)\arm gnu toolchain arm-none-eabi\12.2 rel1\arm-none-eabi\include\c++\12.2.1\bits\stl_vector.h **** 	    _S_shrink(_Vector_impl& __impl, size_type __n)
 213:c:\program files (x86)\arm gnu toolchain arm-none-eabi\12.2 rel1\arm-none-eabi\include\c++\12.2.1\bits\stl_vector.h **** 	    { _S_adjust(__impl, __impl._M_finish + __n, __impl._M_finish); }
 214:c:\program files (x86)\arm gnu toolchain arm-none-eabi\12.2 rel1\arm-none-eabi\include\c++\12.2.1\bits\stl_vector.h **** 
 215:c:\program files (x86)\arm gnu toolchain arm-none-eabi\12.2 rel1\arm-none-eabi\include\c++\12.2.1\bits\stl_vector.h **** 	    static _GLIBCXX20_CONSTEXPR void
ARM GAS  C:\Users\wyx12\AppData\Local\Temp\ccLiZMYq.s 			page 14


 216:c:\program files (x86)\arm gnu toolchain arm-none-eabi\12.2 rel1\arm-none-eabi\include\c++\12.2.1\bits\stl_vector.h **** 	    _S_on_dealloc(_Vector_impl& __impl)
 217:c:\program files (x86)\arm gnu toolchain arm-none-eabi\12.2 rel1\arm-none-eabi\include\c++\12.2.1\bits\stl_vector.h **** 	    {
 218:c:\program files (x86)\arm gnu toolchain arm-none-eabi\12.2 rel1\arm-none-eabi\include\c++\12.2.1\bits\stl_vector.h **** 	      if (__impl._M_start)
 219:c:\program files (x86)\arm gnu toolchain arm-none-eabi\12.2 rel1\arm-none-eabi\include\c++\12.2.1\bits\stl_vector.h **** 		_S_adjust(__impl, __impl._M_finish, __impl._M_end_of_storage);
 220:c:\program files (x86)\arm gnu toolchain arm-none-eabi\12.2 rel1\arm-none-eabi\include\c++\12.2.1\bits\stl_vector.h **** 	    }
 221:c:\program files (x86)\arm gnu toolchain arm-none-eabi\12.2 rel1\arm-none-eabi\include\c++\12.2.1\bits\stl_vector.h **** 
 222:c:\program files (x86)\arm gnu toolchain arm-none-eabi\12.2 rel1\arm-none-eabi\include\c++\12.2.1\bits\stl_vector.h **** 	    // Used on reallocation to tell ASan unused capacity is invalid.
 223:c:\program files (x86)\arm gnu toolchain arm-none-eabi\12.2 rel1\arm-none-eabi\include\c++\12.2.1\bits\stl_vector.h **** 	    struct _Reinit
 224:c:\program files (x86)\arm gnu toolchain arm-none-eabi\12.2 rel1\arm-none-eabi\include\c++\12.2.1\bits\stl_vector.h **** 	    {
 225:c:\program files (x86)\arm gnu toolchain arm-none-eabi\12.2 rel1\arm-none-eabi\include\c++\12.2.1\bits\stl_vector.h **** 	      explicit _GLIBCXX20_CONSTEXPR
 226:c:\program files (x86)\arm gnu toolchain arm-none-eabi\12.2 rel1\arm-none-eabi\include\c++\12.2.1\bits\stl_vector.h **** 	      _Reinit(_Vector_impl& __impl) : _M_impl(__impl)
 227:c:\program files (x86)\arm gnu toolchain arm-none-eabi\12.2 rel1\arm-none-eabi\include\c++\12.2.1\bits\stl_vector.h **** 	      {
 228:c:\program files (x86)\arm gnu toolchain arm-none-eabi\12.2 rel1\arm-none-eabi\include\c++\12.2.1\bits\stl_vector.h **** 		// Mark unused capacity as valid again before deallocating it.
 229:c:\program files (x86)\arm gnu toolchain arm-none-eabi\12.2 rel1\arm-none-eabi\include\c++\12.2.1\bits\stl_vector.h **** 		_S_on_dealloc(_M_impl);
 230:c:\program files (x86)\arm gnu toolchain arm-none-eabi\12.2 rel1\arm-none-eabi\include\c++\12.2.1\bits\stl_vector.h **** 	      }
 231:c:\program files (x86)\arm gnu toolchain arm-none-eabi\12.2 rel1\arm-none-eabi\include\c++\12.2.1\bits\stl_vector.h **** 
 232:c:\program files (x86)\arm gnu toolchain arm-none-eabi\12.2 rel1\arm-none-eabi\include\c++\12.2.1\bits\stl_vector.h **** 	      _GLIBCXX20_CONSTEXPR
 233:c:\program files (x86)\arm gnu toolchain arm-none-eabi\12.2 rel1\arm-none-eabi\include\c++\12.2.1\bits\stl_vector.h **** 	      ~_Reinit()
 234:c:\program files (x86)\arm gnu toolchain arm-none-eabi\12.2 rel1\arm-none-eabi\include\c++\12.2.1\bits\stl_vector.h **** 	      {
 235:c:\program files (x86)\arm gnu toolchain arm-none-eabi\12.2 rel1\arm-none-eabi\include\c++\12.2.1\bits\stl_vector.h **** 		// Mark unused capacity as invalid after reallocation.
 236:c:\program files (x86)\arm gnu toolchain arm-none-eabi\12.2 rel1\arm-none-eabi\include\c++\12.2.1\bits\stl_vector.h **** 		if (_M_impl._M_start)
 237:c:\program files (x86)\arm gnu toolchain arm-none-eabi\12.2 rel1\arm-none-eabi\include\c++\12.2.1\bits\stl_vector.h **** 		  _S_adjust(_M_impl, _M_impl._M_end_of_storage,
 238:c:\program files (x86)\arm gnu toolchain arm-none-eabi\12.2 rel1\arm-none-eabi\include\c++\12.2.1\bits\stl_vector.h **** 			    _M_impl._M_finish);
 239:c:\program files (x86)\arm gnu toolchain arm-none-eabi\12.2 rel1\arm-none-eabi\include\c++\12.2.1\bits\stl_vector.h **** 	      }
 240:c:\program files (x86)\arm gnu toolchain arm-none-eabi\12.2 rel1\arm-none-eabi\include\c++\12.2.1\bits\stl_vector.h **** 
 241:c:\program files (x86)\arm gnu toolchain arm-none-eabi\12.2 rel1\arm-none-eabi\include\c++\12.2.1\bits\stl_vector.h **** 	      _Vector_impl& _M_impl;
 242:c:\program files (x86)\arm gnu toolchain arm-none-eabi\12.2 rel1\arm-none-eabi\include\c++\12.2.1\bits\stl_vector.h **** 
 243:c:\program files (x86)\arm gnu toolchain arm-none-eabi\12.2 rel1\arm-none-eabi\include\c++\12.2.1\bits\stl_vector.h **** #if __cplusplus >= 201103L
 244:c:\program files (x86)\arm gnu toolchain arm-none-eabi\12.2 rel1\arm-none-eabi\include\c++\12.2.1\bits\stl_vector.h **** 	      _Reinit(const _Reinit&) = delete;
 245:c:\program files (x86)\arm gnu toolchain arm-none-eabi\12.2 rel1\arm-none-eabi\include\c++\12.2.1\bits\stl_vector.h **** 	      _Reinit& operator=(const _Reinit&) = delete;
 246:c:\program files (x86)\arm gnu toolchain arm-none-eabi\12.2 rel1\arm-none-eabi\include\c++\12.2.1\bits\stl_vector.h **** #endif
 247:c:\program files (x86)\arm gnu toolchain arm-none-eabi\12.2 rel1\arm-none-eabi\include\c++\12.2.1\bits\stl_vector.h **** 	    };
 248:c:\program files (x86)\arm gnu toolchain arm-none-eabi\12.2 rel1\arm-none-eabi\include\c++\12.2.1\bits\stl_vector.h **** 
 249:c:\program files (x86)\arm gnu toolchain arm-none-eabi\12.2 rel1\arm-none-eabi\include\c++\12.2.1\bits\stl_vector.h **** 	    // Tell ASan when unused capacity is initialized to be valid.
 250:c:\program files (x86)\arm gnu toolchain arm-none-eabi\12.2 rel1\arm-none-eabi\include\c++\12.2.1\bits\stl_vector.h **** 	    struct _Grow
 251:c:\program files (x86)\arm gnu toolchain arm-none-eabi\12.2 rel1\arm-none-eabi\include\c++\12.2.1\bits\stl_vector.h **** 	    {
 252:c:\program files (x86)\arm gnu toolchain arm-none-eabi\12.2 rel1\arm-none-eabi\include\c++\12.2.1\bits\stl_vector.h **** 	      _GLIBCXX20_CONSTEXPR
 253:c:\program files (x86)\arm gnu toolchain arm-none-eabi\12.2 rel1\arm-none-eabi\include\c++\12.2.1\bits\stl_vector.h **** 	      _Grow(_Vector_impl& __impl, size_type __n)
 254:c:\program files (x86)\arm gnu toolchain arm-none-eabi\12.2 rel1\arm-none-eabi\include\c++\12.2.1\bits\stl_vector.h **** 	      : _M_impl(__impl), _M_n(__n)
 255:c:\program files (x86)\arm gnu toolchain arm-none-eabi\12.2 rel1\arm-none-eabi\include\c++\12.2.1\bits\stl_vector.h **** 	      { _S_grow(_M_impl, __n); }
 256:c:\program files (x86)\arm gnu toolchain arm-none-eabi\12.2 rel1\arm-none-eabi\include\c++\12.2.1\bits\stl_vector.h **** 
 257:c:\program files (x86)\arm gnu toolchain arm-none-eabi\12.2 rel1\arm-none-eabi\include\c++\12.2.1\bits\stl_vector.h **** 	      _GLIBCXX20_CONSTEXPR
 258:c:\program files (x86)\arm gnu toolchain arm-none-eabi\12.2 rel1\arm-none-eabi\include\c++\12.2.1\bits\stl_vector.h **** 	      ~_Grow() { if (_M_n) _S_shrink(_M_impl, _M_n); }
 259:c:\program files (x86)\arm gnu toolchain arm-none-eabi\12.2 rel1\arm-none-eabi\include\c++\12.2.1\bits\stl_vector.h **** 
 260:c:\program files (x86)\arm gnu toolchain arm-none-eabi\12.2 rel1\arm-none-eabi\include\c++\12.2.1\bits\stl_vector.h **** 	      _GLIBCXX20_CONSTEXPR
 261:c:\program files (x86)\arm gnu toolchain arm-none-eabi\12.2 rel1\arm-none-eabi\include\c++\12.2.1\bits\stl_vector.h **** 	      void _M_grew(size_type __n) { _M_n -= __n; }
 262:c:\program files (x86)\arm gnu toolchain arm-none-eabi\12.2 rel1\arm-none-eabi\include\c++\12.2.1\bits\stl_vector.h **** 
 263:c:\program files (x86)\arm gnu toolchain arm-none-eabi\12.2 rel1\arm-none-eabi\include\c++\12.2.1\bits\stl_vector.h **** #if __cplusplus >= 201103L
 264:c:\program files (x86)\arm gnu toolchain arm-none-eabi\12.2 rel1\arm-none-eabi\include\c++\12.2.1\bits\stl_vector.h **** 	      _Grow(const _Grow&) = delete;
 265:c:\program files (x86)\arm gnu toolchain arm-none-eabi\12.2 rel1\arm-none-eabi\include\c++\12.2.1\bits\stl_vector.h **** 	      _Grow& operator=(const _Grow&) = delete;
 266:c:\program files (x86)\arm gnu toolchain arm-none-eabi\12.2 rel1\arm-none-eabi\include\c++\12.2.1\bits\stl_vector.h **** #endif
 267:c:\program files (x86)\arm gnu toolchain arm-none-eabi\12.2 rel1\arm-none-eabi\include\c++\12.2.1\bits\stl_vector.h **** 	    private:
 268:c:\program files (x86)\arm gnu toolchain arm-none-eabi\12.2 rel1\arm-none-eabi\include\c++\12.2.1\bits\stl_vector.h **** 	      _Vector_impl& _M_impl;
 269:c:\program files (x86)\arm gnu toolchain arm-none-eabi\12.2 rel1\arm-none-eabi\include\c++\12.2.1\bits\stl_vector.h **** 	      size_type _M_n;
 270:c:\program files (x86)\arm gnu toolchain arm-none-eabi\12.2 rel1\arm-none-eabi\include\c++\12.2.1\bits\stl_vector.h **** 	    };
 271:c:\program files (x86)\arm gnu toolchain arm-none-eabi\12.2 rel1\arm-none-eabi\include\c++\12.2.1\bits\stl_vector.h **** 	  };
 272:c:\program files (x86)\arm gnu toolchain arm-none-eabi\12.2 rel1\arm-none-eabi\include\c++\12.2.1\bits\stl_vector.h **** 
ARM GAS  C:\Users\wyx12\AppData\Local\Temp\ccLiZMYq.s 			page 15


 273:c:\program files (x86)\arm gnu toolchain arm-none-eabi\12.2 rel1\arm-none-eabi\include\c++\12.2.1\bits\stl_vector.h **** #define _GLIBCXX_ASAN_ANNOTATE_REINIT \
 274:c:\program files (x86)\arm gnu toolchain arm-none-eabi\12.2 rel1\arm-none-eabi\include\c++\12.2.1\bits\stl_vector.h ****   typename _Base::_Vector_impl::template _Asan<>::_Reinit const \
 275:c:\program files (x86)\arm gnu toolchain arm-none-eabi\12.2 rel1\arm-none-eabi\include\c++\12.2.1\bits\stl_vector.h **** 	__attribute__((__unused__)) __reinit_guard(this->_M_impl)
 276:c:\program files (x86)\arm gnu toolchain arm-none-eabi\12.2 rel1\arm-none-eabi\include\c++\12.2.1\bits\stl_vector.h **** #define _GLIBCXX_ASAN_ANNOTATE_GROW(n) \
 277:c:\program files (x86)\arm gnu toolchain arm-none-eabi\12.2 rel1\arm-none-eabi\include\c++\12.2.1\bits\stl_vector.h ****   typename _Base::_Vector_impl::template _Asan<>::_Grow \
 278:c:\program files (x86)\arm gnu toolchain arm-none-eabi\12.2 rel1\arm-none-eabi\include\c++\12.2.1\bits\stl_vector.h **** 	__attribute__((__unused__)) __grow_guard(this->_M_impl, (n))
 279:c:\program files (x86)\arm gnu toolchain arm-none-eabi\12.2 rel1\arm-none-eabi\include\c++\12.2.1\bits\stl_vector.h **** #define _GLIBCXX_ASAN_ANNOTATE_GREW(n) __grow_guard._M_grew(n)
 280:c:\program files (x86)\arm gnu toolchain arm-none-eabi\12.2 rel1\arm-none-eabi\include\c++\12.2.1\bits\stl_vector.h **** #define _GLIBCXX_ASAN_ANNOTATE_SHRINK(n) \
 281:c:\program files (x86)\arm gnu toolchain arm-none-eabi\12.2 rel1\arm-none-eabi\include\c++\12.2.1\bits\stl_vector.h ****   _Base::_Vector_impl::template _Asan<>::_S_shrink(this->_M_impl, n)
 282:c:\program files (x86)\arm gnu toolchain arm-none-eabi\12.2 rel1\arm-none-eabi\include\c++\12.2.1\bits\stl_vector.h **** #define _GLIBCXX_ASAN_ANNOTATE_BEFORE_DEALLOC \
 283:c:\program files (x86)\arm gnu toolchain arm-none-eabi\12.2 rel1\arm-none-eabi\include\c++\12.2.1\bits\stl_vector.h ****   _Base::_Vector_impl::template _Asan<>::_S_on_dealloc(this->_M_impl)
 284:c:\program files (x86)\arm gnu toolchain arm-none-eabi\12.2 rel1\arm-none-eabi\include\c++\12.2.1\bits\stl_vector.h **** #else // ! (_GLIBCXX_SANITIZE_STD_ALLOCATOR && _GLIBCXX_SANITIZE_VECTOR)
 285:c:\program files (x86)\arm gnu toolchain arm-none-eabi\12.2 rel1\arm-none-eabi\include\c++\12.2.1\bits\stl_vector.h **** #define _GLIBCXX_ASAN_ANNOTATE_REINIT
 286:c:\program files (x86)\arm gnu toolchain arm-none-eabi\12.2 rel1\arm-none-eabi\include\c++\12.2.1\bits\stl_vector.h **** #define _GLIBCXX_ASAN_ANNOTATE_GROW(n)
 287:c:\program files (x86)\arm gnu toolchain arm-none-eabi\12.2 rel1\arm-none-eabi\include\c++\12.2.1\bits\stl_vector.h **** #define _GLIBCXX_ASAN_ANNOTATE_GREW(n)
 288:c:\program files (x86)\arm gnu toolchain arm-none-eabi\12.2 rel1\arm-none-eabi\include\c++\12.2.1\bits\stl_vector.h **** #define _GLIBCXX_ASAN_ANNOTATE_SHRINK(n)
 289:c:\program files (x86)\arm gnu toolchain arm-none-eabi\12.2 rel1\arm-none-eabi\include\c++\12.2.1\bits\stl_vector.h **** #define _GLIBCXX_ASAN_ANNOTATE_BEFORE_DEALLOC
 290:c:\program files (x86)\arm gnu toolchain arm-none-eabi\12.2 rel1\arm-none-eabi\include\c++\12.2.1\bits\stl_vector.h **** #endif // _GLIBCXX_SANITIZE_STD_ALLOCATOR && _GLIBCXX_SANITIZE_VECTOR
 291:c:\program files (x86)\arm gnu toolchain arm-none-eabi\12.2 rel1\arm-none-eabi\include\c++\12.2.1\bits\stl_vector.h ****       };
 292:c:\program files (x86)\arm gnu toolchain arm-none-eabi\12.2 rel1\arm-none-eabi\include\c++\12.2.1\bits\stl_vector.h **** 
 293:c:\program files (x86)\arm gnu toolchain arm-none-eabi\12.2 rel1\arm-none-eabi\include\c++\12.2.1\bits\stl_vector.h ****     public:
 294:c:\program files (x86)\arm gnu toolchain arm-none-eabi\12.2 rel1\arm-none-eabi\include\c++\12.2.1\bits\stl_vector.h ****       typedef _Alloc allocator_type;
 295:c:\program files (x86)\arm gnu toolchain arm-none-eabi\12.2 rel1\arm-none-eabi\include\c++\12.2.1\bits\stl_vector.h **** 
 296:c:\program files (x86)\arm gnu toolchain arm-none-eabi\12.2 rel1\arm-none-eabi\include\c++\12.2.1\bits\stl_vector.h ****       _GLIBCXX20_CONSTEXPR
 297:c:\program files (x86)\arm gnu toolchain arm-none-eabi\12.2 rel1\arm-none-eabi\include\c++\12.2.1\bits\stl_vector.h ****       _Tp_alloc_type&
 298:c:\program files (x86)\arm gnu toolchain arm-none-eabi\12.2 rel1\arm-none-eabi\include\c++\12.2.1\bits\stl_vector.h ****       _M_get_Tp_allocator() _GLIBCXX_NOEXCEPT
 299:c:\program files (x86)\arm gnu toolchain arm-none-eabi\12.2 rel1\arm-none-eabi\include\c++\12.2.1\bits\stl_vector.h ****       { return this->_M_impl; }
 300:c:\program files (x86)\arm gnu toolchain arm-none-eabi\12.2 rel1\arm-none-eabi\include\c++\12.2.1\bits\stl_vector.h **** 
 301:c:\program files (x86)\arm gnu toolchain arm-none-eabi\12.2 rel1\arm-none-eabi\include\c++\12.2.1\bits\stl_vector.h ****       _GLIBCXX20_CONSTEXPR
 302:c:\program files (x86)\arm gnu toolchain arm-none-eabi\12.2 rel1\arm-none-eabi\include\c++\12.2.1\bits\stl_vector.h ****       const _Tp_alloc_type&
 303:c:\program files (x86)\arm gnu toolchain arm-none-eabi\12.2 rel1\arm-none-eabi\include\c++\12.2.1\bits\stl_vector.h ****       _M_get_Tp_allocator() const _GLIBCXX_NOEXCEPT
 304:c:\program files (x86)\arm gnu toolchain arm-none-eabi\12.2 rel1\arm-none-eabi\include\c++\12.2.1\bits\stl_vector.h ****       { return this->_M_impl; }
 305:c:\program files (x86)\arm gnu toolchain arm-none-eabi\12.2 rel1\arm-none-eabi\include\c++\12.2.1\bits\stl_vector.h **** 
 306:c:\program files (x86)\arm gnu toolchain arm-none-eabi\12.2 rel1\arm-none-eabi\include\c++\12.2.1\bits\stl_vector.h ****       _GLIBCXX20_CONSTEXPR
 307:c:\program files (x86)\arm gnu toolchain arm-none-eabi\12.2 rel1\arm-none-eabi\include\c++\12.2.1\bits\stl_vector.h ****       allocator_type
 308:c:\program files (x86)\arm gnu toolchain arm-none-eabi\12.2 rel1\arm-none-eabi\include\c++\12.2.1\bits\stl_vector.h ****       get_allocator() const _GLIBCXX_NOEXCEPT
 309:c:\program files (x86)\arm gnu toolchain arm-none-eabi\12.2 rel1\arm-none-eabi\include\c++\12.2.1\bits\stl_vector.h ****       { return allocator_type(_M_get_Tp_allocator()); }
 310:c:\program files (x86)\arm gnu toolchain arm-none-eabi\12.2 rel1\arm-none-eabi\include\c++\12.2.1\bits\stl_vector.h **** 
 311:c:\program files (x86)\arm gnu toolchain arm-none-eabi\12.2 rel1\arm-none-eabi\include\c++\12.2.1\bits\stl_vector.h **** #if __cplusplus >= 201103L
 312:c:\program files (x86)\arm gnu toolchain arm-none-eabi\12.2 rel1\arm-none-eabi\include\c++\12.2.1\bits\stl_vector.h ****       _Vector_base() = default;
 313:c:\program files (x86)\arm gnu toolchain arm-none-eabi\12.2 rel1\arm-none-eabi\include\c++\12.2.1\bits\stl_vector.h **** #else
 314:c:\program files (x86)\arm gnu toolchain arm-none-eabi\12.2 rel1\arm-none-eabi\include\c++\12.2.1\bits\stl_vector.h ****       _Vector_base() { }
 315:c:\program files (x86)\arm gnu toolchain arm-none-eabi\12.2 rel1\arm-none-eabi\include\c++\12.2.1\bits\stl_vector.h **** #endif
 316:c:\program files (x86)\arm gnu toolchain arm-none-eabi\12.2 rel1\arm-none-eabi\include\c++\12.2.1\bits\stl_vector.h **** 
 317:c:\program files (x86)\arm gnu toolchain arm-none-eabi\12.2 rel1\arm-none-eabi\include\c++\12.2.1\bits\stl_vector.h ****       _GLIBCXX20_CONSTEXPR
 318:c:\program files (x86)\arm gnu toolchain arm-none-eabi\12.2 rel1\arm-none-eabi\include\c++\12.2.1\bits\stl_vector.h ****       _Vector_base(const allocator_type& __a) _GLIBCXX_NOEXCEPT
 319:c:\program files (x86)\arm gnu toolchain arm-none-eabi\12.2 rel1\arm-none-eabi\include\c++\12.2.1\bits\stl_vector.h ****       : _M_impl(__a) { }
 320:c:\program files (x86)\arm gnu toolchain arm-none-eabi\12.2 rel1\arm-none-eabi\include\c++\12.2.1\bits\stl_vector.h **** 
 321:c:\program files (x86)\arm gnu toolchain arm-none-eabi\12.2 rel1\arm-none-eabi\include\c++\12.2.1\bits\stl_vector.h ****       // Kept for ABI compatibility.
 322:c:\program files (x86)\arm gnu toolchain arm-none-eabi\12.2 rel1\arm-none-eabi\include\c++\12.2.1\bits\stl_vector.h **** #if !_GLIBCXX_INLINE_VERSION
 323:c:\program files (x86)\arm gnu toolchain arm-none-eabi\12.2 rel1\arm-none-eabi\include\c++\12.2.1\bits\stl_vector.h ****       _GLIBCXX20_CONSTEXPR
 324:c:\program files (x86)\arm gnu toolchain arm-none-eabi\12.2 rel1\arm-none-eabi\include\c++\12.2.1\bits\stl_vector.h ****       _Vector_base(size_t __n)
 325:c:\program files (x86)\arm gnu toolchain arm-none-eabi\12.2 rel1\arm-none-eabi\include\c++\12.2.1\bits\stl_vector.h ****       : _M_impl()
 326:c:\program files (x86)\arm gnu toolchain arm-none-eabi\12.2 rel1\arm-none-eabi\include\c++\12.2.1\bits\stl_vector.h ****       { _M_create_storage(__n); }
 327:c:\program files (x86)\arm gnu toolchain arm-none-eabi\12.2 rel1\arm-none-eabi\include\c++\12.2.1\bits\stl_vector.h **** #endif
 328:c:\program files (x86)\arm gnu toolchain arm-none-eabi\12.2 rel1\arm-none-eabi\include\c++\12.2.1\bits\stl_vector.h **** 
 329:c:\program files (x86)\arm gnu toolchain arm-none-eabi\12.2 rel1\arm-none-eabi\include\c++\12.2.1\bits\stl_vector.h ****       _GLIBCXX20_CONSTEXPR
ARM GAS  C:\Users\wyx12\AppData\Local\Temp\ccLiZMYq.s 			page 16


 330:c:\program files (x86)\arm gnu toolchain arm-none-eabi\12.2 rel1\arm-none-eabi\include\c++\12.2.1\bits\stl_vector.h ****       _Vector_base(size_t __n, const allocator_type& __a)
 331:c:\program files (x86)\arm gnu toolchain arm-none-eabi\12.2 rel1\arm-none-eabi\include\c++\12.2.1\bits\stl_vector.h ****       : _M_impl(__a)
 332:c:\program files (x86)\arm gnu toolchain arm-none-eabi\12.2 rel1\arm-none-eabi\include\c++\12.2.1\bits\stl_vector.h ****       { _M_create_storage(__n); }
 333:c:\program files (x86)\arm gnu toolchain arm-none-eabi\12.2 rel1\arm-none-eabi\include\c++\12.2.1\bits\stl_vector.h **** 
 334:c:\program files (x86)\arm gnu toolchain arm-none-eabi\12.2 rel1\arm-none-eabi\include\c++\12.2.1\bits\stl_vector.h **** #if __cplusplus >= 201103L
 335:c:\program files (x86)\arm gnu toolchain arm-none-eabi\12.2 rel1\arm-none-eabi\include\c++\12.2.1\bits\stl_vector.h ****       _Vector_base(_Vector_base&&) = default;
 336:c:\program files (x86)\arm gnu toolchain arm-none-eabi\12.2 rel1\arm-none-eabi\include\c++\12.2.1\bits\stl_vector.h **** 
 337:c:\program files (x86)\arm gnu toolchain arm-none-eabi\12.2 rel1\arm-none-eabi\include\c++\12.2.1\bits\stl_vector.h ****       // Kept for ABI compatibility.
 338:c:\program files (x86)\arm gnu toolchain arm-none-eabi\12.2 rel1\arm-none-eabi\include\c++\12.2.1\bits\stl_vector.h **** # if !_GLIBCXX_INLINE_VERSION
 339:c:\program files (x86)\arm gnu toolchain arm-none-eabi\12.2 rel1\arm-none-eabi\include\c++\12.2.1\bits\stl_vector.h ****       _GLIBCXX20_CONSTEXPR
 340:c:\program files (x86)\arm gnu toolchain arm-none-eabi\12.2 rel1\arm-none-eabi\include\c++\12.2.1\bits\stl_vector.h ****       _Vector_base(_Tp_alloc_type&& __a) noexcept
 341:c:\program files (x86)\arm gnu toolchain arm-none-eabi\12.2 rel1\arm-none-eabi\include\c++\12.2.1\bits\stl_vector.h ****       : _M_impl(std::move(__a)) { }
 342:c:\program files (x86)\arm gnu toolchain arm-none-eabi\12.2 rel1\arm-none-eabi\include\c++\12.2.1\bits\stl_vector.h **** 
 343:c:\program files (x86)\arm gnu toolchain arm-none-eabi\12.2 rel1\arm-none-eabi\include\c++\12.2.1\bits\stl_vector.h ****       _GLIBCXX20_CONSTEXPR
 344:c:\program files (x86)\arm gnu toolchain arm-none-eabi\12.2 rel1\arm-none-eabi\include\c++\12.2.1\bits\stl_vector.h ****       _Vector_base(_Vector_base&& __x, const allocator_type& __a)
 345:c:\program files (x86)\arm gnu toolchain arm-none-eabi\12.2 rel1\arm-none-eabi\include\c++\12.2.1\bits\stl_vector.h ****       : _M_impl(__a)
 346:c:\program files (x86)\arm gnu toolchain arm-none-eabi\12.2 rel1\arm-none-eabi\include\c++\12.2.1\bits\stl_vector.h ****       {
 347:c:\program files (x86)\arm gnu toolchain arm-none-eabi\12.2 rel1\arm-none-eabi\include\c++\12.2.1\bits\stl_vector.h **** 	if (__x.get_allocator() == __a)
 348:c:\program files (x86)\arm gnu toolchain arm-none-eabi\12.2 rel1\arm-none-eabi\include\c++\12.2.1\bits\stl_vector.h **** 	  this->_M_impl._M_swap_data(__x._M_impl);
 349:c:\program files (x86)\arm gnu toolchain arm-none-eabi\12.2 rel1\arm-none-eabi\include\c++\12.2.1\bits\stl_vector.h **** 	else
 350:c:\program files (x86)\arm gnu toolchain arm-none-eabi\12.2 rel1\arm-none-eabi\include\c++\12.2.1\bits\stl_vector.h **** 	  {
 351:c:\program files (x86)\arm gnu toolchain arm-none-eabi\12.2 rel1\arm-none-eabi\include\c++\12.2.1\bits\stl_vector.h **** 	    size_t __n = __x._M_impl._M_finish - __x._M_impl._M_start;
 352:c:\program files (x86)\arm gnu toolchain arm-none-eabi\12.2 rel1\arm-none-eabi\include\c++\12.2.1\bits\stl_vector.h **** 	    _M_create_storage(__n);
 353:c:\program files (x86)\arm gnu toolchain arm-none-eabi\12.2 rel1\arm-none-eabi\include\c++\12.2.1\bits\stl_vector.h **** 	  }
 354:c:\program files (x86)\arm gnu toolchain arm-none-eabi\12.2 rel1\arm-none-eabi\include\c++\12.2.1\bits\stl_vector.h ****       }
 355:c:\program files (x86)\arm gnu toolchain arm-none-eabi\12.2 rel1\arm-none-eabi\include\c++\12.2.1\bits\stl_vector.h **** # endif
 356:c:\program files (x86)\arm gnu toolchain arm-none-eabi\12.2 rel1\arm-none-eabi\include\c++\12.2.1\bits\stl_vector.h **** 
 357:c:\program files (x86)\arm gnu toolchain arm-none-eabi\12.2 rel1\arm-none-eabi\include\c++\12.2.1\bits\stl_vector.h ****       _GLIBCXX20_CONSTEXPR
 358:c:\program files (x86)\arm gnu toolchain arm-none-eabi\12.2 rel1\arm-none-eabi\include\c++\12.2.1\bits\stl_vector.h ****       _Vector_base(const allocator_type& __a, _Vector_base&& __x)
 359:c:\program files (x86)\arm gnu toolchain arm-none-eabi\12.2 rel1\arm-none-eabi\include\c++\12.2.1\bits\stl_vector.h ****       : _M_impl(_Tp_alloc_type(__a), std::move(__x._M_impl))
 360:c:\program files (x86)\arm gnu toolchain arm-none-eabi\12.2 rel1\arm-none-eabi\include\c++\12.2.1\bits\stl_vector.h ****       { }
 361:c:\program files (x86)\arm gnu toolchain arm-none-eabi\12.2 rel1\arm-none-eabi\include\c++\12.2.1\bits\stl_vector.h **** #endif
 362:c:\program files (x86)\arm gnu toolchain arm-none-eabi\12.2 rel1\arm-none-eabi\include\c++\12.2.1\bits\stl_vector.h **** 
 363:c:\program files (x86)\arm gnu toolchain arm-none-eabi\12.2 rel1\arm-none-eabi\include\c++\12.2.1\bits\stl_vector.h ****       _GLIBCXX20_CONSTEXPR
 364:c:\program files (x86)\arm gnu toolchain arm-none-eabi\12.2 rel1\arm-none-eabi\include\c++\12.2.1\bits\stl_vector.h ****       ~_Vector_base() _GLIBCXX_NOEXCEPT
 176              		.loc 3 364 7 is_stmt 1 view -0
 177              		.cfi_startproc
 178              		@ args = 0, pretend = 0, frame = 0
 179              		@ frame_needed = 0, uses_anonymous_args = 0
 180              		.loc 3 364 7 is_stmt 0 view .LVU44
 181 0000 10B5     		push	{r4, lr}
 182              	.LCFI4:
 183              		.cfi_def_cfa_offset 8
 184              		.cfi_offset 4, -8
 185              		.cfi_offset 14, -4
 186 0002 0446     		mov	r4, r0
 187              	.LBB639:
 365:c:\program files (x86)\arm gnu toolchain arm-none-eabi\12.2 rel1\arm-none-eabi\include\c++\12.2.1\bits\stl_vector.h ****       {
 366:c:\program files (x86)\arm gnu toolchain arm-none-eabi\12.2 rel1\arm-none-eabi\include\c++\12.2.1\bits\stl_vector.h **** 	_M_deallocate(_M_impl._M_start,
 188              		.loc 3 366 15 view .LVU45
 189 0004 0068     		ldr	r0, [r0]
 190              	.LVL6:
 367:c:\program files (x86)\arm gnu toolchain arm-none-eabi\12.2 rel1\arm-none-eabi\include\c++\12.2.1\bits\stl_vector.h **** 		      _M_impl._M_end_of_storage - _M_impl._M_start);
 191              		.loc 3 367 17 view .LVU46
 192 0006 A168     		ldr	r1, [r4, #8]
 193              		.loc 3 367 35 view .LVU47
 194 0008 091A     		subs	r1, r1, r0
ARM GAS  C:\Users\wyx12\AppData\Local\Temp\ccLiZMYq.s 			page 17


 195              	.LVL7:
 196              	.LBB640:
 197              	.LBI640:
 368:c:\program files (x86)\arm gnu toolchain arm-none-eabi\12.2 rel1\arm-none-eabi\include\c++\12.2.1\bits\stl_vector.h ****       }
 369:c:\program files (x86)\arm gnu toolchain arm-none-eabi\12.2 rel1\arm-none-eabi\include\c++\12.2.1\bits\stl_vector.h **** 
 370:c:\program files (x86)\arm gnu toolchain arm-none-eabi\12.2 rel1\arm-none-eabi\include\c++\12.2.1\bits\stl_vector.h ****     public:
 371:c:\program files (x86)\arm gnu toolchain arm-none-eabi\12.2 rel1\arm-none-eabi\include\c++\12.2.1\bits\stl_vector.h ****       _Vector_impl _M_impl;
 372:c:\program files (x86)\arm gnu toolchain arm-none-eabi\12.2 rel1\arm-none-eabi\include\c++\12.2.1\bits\stl_vector.h **** 
 373:c:\program files (x86)\arm gnu toolchain arm-none-eabi\12.2 rel1\arm-none-eabi\include\c++\12.2.1\bits\stl_vector.h ****       _GLIBCXX20_CONSTEXPR
 374:c:\program files (x86)\arm gnu toolchain arm-none-eabi\12.2 rel1\arm-none-eabi\include\c++\12.2.1\bits\stl_vector.h ****       pointer
 375:c:\program files (x86)\arm gnu toolchain arm-none-eabi\12.2 rel1\arm-none-eabi\include\c++\12.2.1\bits\stl_vector.h ****       _M_allocate(size_t __n)
 376:c:\program files (x86)\arm gnu toolchain arm-none-eabi\12.2 rel1\arm-none-eabi\include\c++\12.2.1\bits\stl_vector.h ****       {
 377:c:\program files (x86)\arm gnu toolchain arm-none-eabi\12.2 rel1\arm-none-eabi\include\c++\12.2.1\bits\stl_vector.h **** 	typedef __gnu_cxx::__alloc_traits<_Tp_alloc_type> _Tr;
 378:c:\program files (x86)\arm gnu toolchain arm-none-eabi\12.2 rel1\arm-none-eabi\include\c++\12.2.1\bits\stl_vector.h **** 	return __n != 0 ? _Tr::allocate(_M_impl, __n) : pointer();
 379:c:\program files (x86)\arm gnu toolchain arm-none-eabi\12.2 rel1\arm-none-eabi\include\c++\12.2.1\bits\stl_vector.h ****       }
 380:c:\program files (x86)\arm gnu toolchain arm-none-eabi\12.2 rel1\arm-none-eabi\include\c++\12.2.1\bits\stl_vector.h **** 
 381:c:\program files (x86)\arm gnu toolchain arm-none-eabi\12.2 rel1\arm-none-eabi\include\c++\12.2.1\bits\stl_vector.h ****       _GLIBCXX20_CONSTEXPR
 382:c:\program files (x86)\arm gnu toolchain arm-none-eabi\12.2 rel1\arm-none-eabi\include\c++\12.2.1\bits\stl_vector.h ****       void
 383:c:\program files (x86)\arm gnu toolchain arm-none-eabi\12.2 rel1\arm-none-eabi\include\c++\12.2.1\bits\stl_vector.h ****       _M_deallocate(pointer __p, size_t __n)
 198              		.loc 3 383 7 is_stmt 1 view .LVU48
 199              	.LBB641:
 384:c:\program files (x86)\arm gnu toolchain arm-none-eabi\12.2 rel1\arm-none-eabi\include\c++\12.2.1\bits\stl_vector.h ****       {
 385:c:\program files (x86)\arm gnu toolchain arm-none-eabi\12.2 rel1\arm-none-eabi\include\c++\12.2.1\bits\stl_vector.h **** 	typedef __gnu_cxx::__alloc_traits<_Tp_alloc_type> _Tr;
 386:c:\program files (x86)\arm gnu toolchain arm-none-eabi\12.2 rel1\arm-none-eabi\include\c++\12.2.1\bits\stl_vector.h **** 	if (__p)
 200              		.loc 3 386 2 is_stmt 0 view .LVU49
 201 000a 08B1     		cbz	r0, .L10
 202              	.LVL8:
 203              	.LBB642:
 204              	.LBI642:
 205              		.file 4 "c:\\program files (x86)\\arm gnu toolchain arm-none-eabi\\12.2 rel1\\arm-none-eabi\\inclu
   1:c:\program files (x86)\arm gnu toolchain arm-none-eabi\12.2 rel1\arm-none-eabi\include\c++\12.2.1\bits\alloc_traits.h **** // Allocator traits -*- C++ -*-
   2:c:\program files (x86)\arm gnu toolchain arm-none-eabi\12.2 rel1\arm-none-eabi\include\c++\12.2.1\bits\alloc_traits.h **** 
   3:c:\program files (x86)\arm gnu toolchain arm-none-eabi\12.2 rel1\arm-none-eabi\include\c++\12.2.1\bits\alloc_traits.h **** // Copyright (C) 2011-2022 Free Software Foundation, Inc.
   4:c:\program files (x86)\arm gnu toolchain arm-none-eabi\12.2 rel1\arm-none-eabi\include\c++\12.2.1\bits\alloc_traits.h **** //
   5:c:\program files (x86)\arm gnu toolchain arm-none-eabi\12.2 rel1\arm-none-eabi\include\c++\12.2.1\bits\alloc_traits.h **** // This file is part of the GNU ISO C++ Library.  This library is free
   6:c:\program files (x86)\arm gnu toolchain arm-none-eabi\12.2 rel1\arm-none-eabi\include\c++\12.2.1\bits\alloc_traits.h **** // software; you can redistribute it and/or modify it under the
   7:c:\program files (x86)\arm gnu toolchain arm-none-eabi\12.2 rel1\arm-none-eabi\include\c++\12.2.1\bits\alloc_traits.h **** // terms of the GNU General Public License as published by the
   8:c:\program files (x86)\arm gnu toolchain arm-none-eabi\12.2 rel1\arm-none-eabi\include\c++\12.2.1\bits\alloc_traits.h **** // Free Software Foundation; either version 3, or (at your option)
   9:c:\program files (x86)\arm gnu toolchain arm-none-eabi\12.2 rel1\arm-none-eabi\include\c++\12.2.1\bits\alloc_traits.h **** // any later version.
  10:c:\program files (x86)\arm gnu toolchain arm-none-eabi\12.2 rel1\arm-none-eabi\include\c++\12.2.1\bits\alloc_traits.h **** 
  11:c:\program files (x86)\arm gnu toolchain arm-none-eabi\12.2 rel1\arm-none-eabi\include\c++\12.2.1\bits\alloc_traits.h **** // This library is distributed in the hope that it will be useful,
  12:c:\program files (x86)\arm gnu toolchain arm-none-eabi\12.2 rel1\arm-none-eabi\include\c++\12.2.1\bits\alloc_traits.h **** // but WITHOUT ANY WARRANTY; without even the implied warranty of
  13:c:\program files (x86)\arm gnu toolchain arm-none-eabi\12.2 rel1\arm-none-eabi\include\c++\12.2.1\bits\alloc_traits.h **** // MERCHANTABILITY or FITNESS FOR A PARTICULAR PURPOSE.  See the
  14:c:\program files (x86)\arm gnu toolchain arm-none-eabi\12.2 rel1\arm-none-eabi\include\c++\12.2.1\bits\alloc_traits.h **** // GNU General Public License for more details.
  15:c:\program files (x86)\arm gnu toolchain arm-none-eabi\12.2 rel1\arm-none-eabi\include\c++\12.2.1\bits\alloc_traits.h **** 
  16:c:\program files (x86)\arm gnu toolchain arm-none-eabi\12.2 rel1\arm-none-eabi\include\c++\12.2.1\bits\alloc_traits.h **** // Under Section 7 of GPL version 3, you are granted additional
  17:c:\program files (x86)\arm gnu toolchain arm-none-eabi\12.2 rel1\arm-none-eabi\include\c++\12.2.1\bits\alloc_traits.h **** // permissions described in the GCC Runtime Library Exception, version
  18:c:\program files (x86)\arm gnu toolchain arm-none-eabi\12.2 rel1\arm-none-eabi\include\c++\12.2.1\bits\alloc_traits.h **** // 3.1, as published by the Free Software Foundation.
  19:c:\program files (x86)\arm gnu toolchain arm-none-eabi\12.2 rel1\arm-none-eabi\include\c++\12.2.1\bits\alloc_traits.h **** 
  20:c:\program files (x86)\arm gnu toolchain arm-none-eabi\12.2 rel1\arm-none-eabi\include\c++\12.2.1\bits\alloc_traits.h **** // You should have received a copy of the GNU General Public License and
  21:c:\program files (x86)\arm gnu toolchain arm-none-eabi\12.2 rel1\arm-none-eabi\include\c++\12.2.1\bits\alloc_traits.h **** // a copy of the GCC Runtime Library Exception along with this program;
  22:c:\program files (x86)\arm gnu toolchain arm-none-eabi\12.2 rel1\arm-none-eabi\include\c++\12.2.1\bits\alloc_traits.h **** // see the files COPYING3 and COPYING.RUNTIME respectively.  If not, see
  23:c:\program files (x86)\arm gnu toolchain arm-none-eabi\12.2 rel1\arm-none-eabi\include\c++\12.2.1\bits\alloc_traits.h **** // <http://www.gnu.org/licenses/>.
  24:c:\program files (x86)\arm gnu toolchain arm-none-eabi\12.2 rel1\arm-none-eabi\include\c++\12.2.1\bits\alloc_traits.h **** 
  25:c:\program files (x86)\arm gnu toolchain arm-none-eabi\12.2 rel1\arm-none-eabi\include\c++\12.2.1\bits\alloc_traits.h **** /** @file bits/alloc_traits.h
  26:c:\program files (x86)\arm gnu toolchain arm-none-eabi\12.2 rel1\arm-none-eabi\include\c++\12.2.1\bits\alloc_traits.h ****  *  This is an internal header file, included by other library headers.
  27:c:\program files (x86)\arm gnu toolchain arm-none-eabi\12.2 rel1\arm-none-eabi\include\c++\12.2.1\bits\alloc_traits.h ****  *  Do not attempt to use it directly. @headername{memory}
ARM GAS  C:\Users\wyx12\AppData\Local\Temp\ccLiZMYq.s 			page 18


  28:c:\program files (x86)\arm gnu toolchain arm-none-eabi\12.2 rel1\arm-none-eabi\include\c++\12.2.1\bits\alloc_traits.h ****  */
  29:c:\program files (x86)\arm gnu toolchain arm-none-eabi\12.2 rel1\arm-none-eabi\include\c++\12.2.1\bits\alloc_traits.h **** 
  30:c:\program files (x86)\arm gnu toolchain arm-none-eabi\12.2 rel1\arm-none-eabi\include\c++\12.2.1\bits\alloc_traits.h **** #ifndef _ALLOC_TRAITS_H
  31:c:\program files (x86)\arm gnu toolchain arm-none-eabi\12.2 rel1\arm-none-eabi\include\c++\12.2.1\bits\alloc_traits.h **** #define _ALLOC_TRAITS_H 1
  32:c:\program files (x86)\arm gnu toolchain arm-none-eabi\12.2 rel1\arm-none-eabi\include\c++\12.2.1\bits\alloc_traits.h **** 
  33:c:\program files (x86)\arm gnu toolchain arm-none-eabi\12.2 rel1\arm-none-eabi\include\c++\12.2.1\bits\alloc_traits.h **** #include <bits/stl_construct.h>
  34:c:\program files (x86)\arm gnu toolchain arm-none-eabi\12.2 rel1\arm-none-eabi\include\c++\12.2.1\bits\alloc_traits.h **** #include <bits/memoryfwd.h>
  35:c:\program files (x86)\arm gnu toolchain arm-none-eabi\12.2 rel1\arm-none-eabi\include\c++\12.2.1\bits\alloc_traits.h **** #if __cplusplus >= 201103L
  36:c:\program files (x86)\arm gnu toolchain arm-none-eabi\12.2 rel1\arm-none-eabi\include\c++\12.2.1\bits\alloc_traits.h **** # include <bits/allocator.h>
  37:c:\program files (x86)\arm gnu toolchain arm-none-eabi\12.2 rel1\arm-none-eabi\include\c++\12.2.1\bits\alloc_traits.h **** # include <bits/ptr_traits.h>
  38:c:\program files (x86)\arm gnu toolchain arm-none-eabi\12.2 rel1\arm-none-eabi\include\c++\12.2.1\bits\alloc_traits.h **** # include <ext/numeric_traits.h>
  39:c:\program files (x86)\arm gnu toolchain arm-none-eabi\12.2 rel1\arm-none-eabi\include\c++\12.2.1\bits\alloc_traits.h **** #endif
  40:c:\program files (x86)\arm gnu toolchain arm-none-eabi\12.2 rel1\arm-none-eabi\include\c++\12.2.1\bits\alloc_traits.h **** 
  41:c:\program files (x86)\arm gnu toolchain arm-none-eabi\12.2 rel1\arm-none-eabi\include\c++\12.2.1\bits\alloc_traits.h **** namespace std _GLIBCXX_VISIBILITY(default)
  42:c:\program files (x86)\arm gnu toolchain arm-none-eabi\12.2 rel1\arm-none-eabi\include\c++\12.2.1\bits\alloc_traits.h **** {
  43:c:\program files (x86)\arm gnu toolchain arm-none-eabi\12.2 rel1\arm-none-eabi\include\c++\12.2.1\bits\alloc_traits.h **** _GLIBCXX_BEGIN_NAMESPACE_VERSION
  44:c:\program files (x86)\arm gnu toolchain arm-none-eabi\12.2 rel1\arm-none-eabi\include\c++\12.2.1\bits\alloc_traits.h **** 
  45:c:\program files (x86)\arm gnu toolchain arm-none-eabi\12.2 rel1\arm-none-eabi\include\c++\12.2.1\bits\alloc_traits.h **** #if __cplusplus >= 201103L
  46:c:\program files (x86)\arm gnu toolchain arm-none-eabi\12.2 rel1\arm-none-eabi\include\c++\12.2.1\bits\alloc_traits.h **** #define __cpp_lib_allocator_traits_is_always_equal 201411L
  47:c:\program files (x86)\arm gnu toolchain arm-none-eabi\12.2 rel1\arm-none-eabi\include\c++\12.2.1\bits\alloc_traits.h **** 
  48:c:\program files (x86)\arm gnu toolchain arm-none-eabi\12.2 rel1\arm-none-eabi\include\c++\12.2.1\bits\alloc_traits.h ****   /// @cond undocumented
  49:c:\program files (x86)\arm gnu toolchain arm-none-eabi\12.2 rel1\arm-none-eabi\include\c++\12.2.1\bits\alloc_traits.h ****   struct __allocator_traits_base
  50:c:\program files (x86)\arm gnu toolchain arm-none-eabi\12.2 rel1\arm-none-eabi\include\c++\12.2.1\bits\alloc_traits.h ****   {
  51:c:\program files (x86)\arm gnu toolchain arm-none-eabi\12.2 rel1\arm-none-eabi\include\c++\12.2.1\bits\alloc_traits.h ****     template<typename _Tp, typename _Up, typename = void>
  52:c:\program files (x86)\arm gnu toolchain arm-none-eabi\12.2 rel1\arm-none-eabi\include\c++\12.2.1\bits\alloc_traits.h ****       struct __rebind : __replace_first_arg<_Tp, _Up> { };
  53:c:\program files (x86)\arm gnu toolchain arm-none-eabi\12.2 rel1\arm-none-eabi\include\c++\12.2.1\bits\alloc_traits.h **** 
  54:c:\program files (x86)\arm gnu toolchain arm-none-eabi\12.2 rel1\arm-none-eabi\include\c++\12.2.1\bits\alloc_traits.h ****     template<typename _Tp, typename _Up>
  55:c:\program files (x86)\arm gnu toolchain arm-none-eabi\12.2 rel1\arm-none-eabi\include\c++\12.2.1\bits\alloc_traits.h ****       struct __rebind<_Tp, _Up,
  56:c:\program files (x86)\arm gnu toolchain arm-none-eabi\12.2 rel1\arm-none-eabi\include\c++\12.2.1\bits\alloc_traits.h **** 		      __void_t<typename _Tp::template rebind<_Up>::other>>
  57:c:\program files (x86)\arm gnu toolchain arm-none-eabi\12.2 rel1\arm-none-eabi\include\c++\12.2.1\bits\alloc_traits.h ****       { using type = typename _Tp::template rebind<_Up>::other; };
  58:c:\program files (x86)\arm gnu toolchain arm-none-eabi\12.2 rel1\arm-none-eabi\include\c++\12.2.1\bits\alloc_traits.h **** 
  59:c:\program files (x86)\arm gnu toolchain arm-none-eabi\12.2 rel1\arm-none-eabi\include\c++\12.2.1\bits\alloc_traits.h ****   protected:
  60:c:\program files (x86)\arm gnu toolchain arm-none-eabi\12.2 rel1\arm-none-eabi\include\c++\12.2.1\bits\alloc_traits.h ****     template<typename _Tp>
  61:c:\program files (x86)\arm gnu toolchain arm-none-eabi\12.2 rel1\arm-none-eabi\include\c++\12.2.1\bits\alloc_traits.h ****       using __pointer = typename _Tp::pointer;
  62:c:\program files (x86)\arm gnu toolchain arm-none-eabi\12.2 rel1\arm-none-eabi\include\c++\12.2.1\bits\alloc_traits.h ****     template<typename _Tp>
  63:c:\program files (x86)\arm gnu toolchain arm-none-eabi\12.2 rel1\arm-none-eabi\include\c++\12.2.1\bits\alloc_traits.h ****       using __c_pointer = typename _Tp::const_pointer;
  64:c:\program files (x86)\arm gnu toolchain arm-none-eabi\12.2 rel1\arm-none-eabi\include\c++\12.2.1\bits\alloc_traits.h ****     template<typename _Tp>
  65:c:\program files (x86)\arm gnu toolchain arm-none-eabi\12.2 rel1\arm-none-eabi\include\c++\12.2.1\bits\alloc_traits.h ****       using __v_pointer = typename _Tp::void_pointer;
  66:c:\program files (x86)\arm gnu toolchain arm-none-eabi\12.2 rel1\arm-none-eabi\include\c++\12.2.1\bits\alloc_traits.h ****     template<typename _Tp>
  67:c:\program files (x86)\arm gnu toolchain arm-none-eabi\12.2 rel1\arm-none-eabi\include\c++\12.2.1\bits\alloc_traits.h ****       using __cv_pointer = typename _Tp::const_void_pointer;
  68:c:\program files (x86)\arm gnu toolchain arm-none-eabi\12.2 rel1\arm-none-eabi\include\c++\12.2.1\bits\alloc_traits.h ****     template<typename _Tp>
  69:c:\program files (x86)\arm gnu toolchain arm-none-eabi\12.2 rel1\arm-none-eabi\include\c++\12.2.1\bits\alloc_traits.h ****       using __pocca = typename _Tp::propagate_on_container_copy_assignment;
  70:c:\program files (x86)\arm gnu toolchain arm-none-eabi\12.2 rel1\arm-none-eabi\include\c++\12.2.1\bits\alloc_traits.h ****     template<typename _Tp>
  71:c:\program files (x86)\arm gnu toolchain arm-none-eabi\12.2 rel1\arm-none-eabi\include\c++\12.2.1\bits\alloc_traits.h ****       using __pocma = typename _Tp::propagate_on_container_move_assignment;
  72:c:\program files (x86)\arm gnu toolchain arm-none-eabi\12.2 rel1\arm-none-eabi\include\c++\12.2.1\bits\alloc_traits.h ****     template<typename _Tp>
  73:c:\program files (x86)\arm gnu toolchain arm-none-eabi\12.2 rel1\arm-none-eabi\include\c++\12.2.1\bits\alloc_traits.h ****       using __pocs = typename _Tp::propagate_on_container_swap;
  74:c:\program files (x86)\arm gnu toolchain arm-none-eabi\12.2 rel1\arm-none-eabi\include\c++\12.2.1\bits\alloc_traits.h ****     template<typename _Tp>
  75:c:\program files (x86)\arm gnu toolchain arm-none-eabi\12.2 rel1\arm-none-eabi\include\c++\12.2.1\bits\alloc_traits.h ****       using __equal = typename _Tp::is_always_equal;
  76:c:\program files (x86)\arm gnu toolchain arm-none-eabi\12.2 rel1\arm-none-eabi\include\c++\12.2.1\bits\alloc_traits.h ****   };
  77:c:\program files (x86)\arm gnu toolchain arm-none-eabi\12.2 rel1\arm-none-eabi\include\c++\12.2.1\bits\alloc_traits.h **** 
  78:c:\program files (x86)\arm gnu toolchain arm-none-eabi\12.2 rel1\arm-none-eabi\include\c++\12.2.1\bits\alloc_traits.h ****   template<typename _Alloc, typename _Up>
  79:c:\program files (x86)\arm gnu toolchain arm-none-eabi\12.2 rel1\arm-none-eabi\include\c++\12.2.1\bits\alloc_traits.h ****     using __alloc_rebind
  80:c:\program files (x86)\arm gnu toolchain arm-none-eabi\12.2 rel1\arm-none-eabi\include\c++\12.2.1\bits\alloc_traits.h ****       = typename __allocator_traits_base::template __rebind<_Alloc, _Up>::type;
  81:c:\program files (x86)\arm gnu toolchain arm-none-eabi\12.2 rel1\arm-none-eabi\include\c++\12.2.1\bits\alloc_traits.h ****   /// @endcond
  82:c:\program files (x86)\arm gnu toolchain arm-none-eabi\12.2 rel1\arm-none-eabi\include\c++\12.2.1\bits\alloc_traits.h **** 
  83:c:\program files (x86)\arm gnu toolchain arm-none-eabi\12.2 rel1\arm-none-eabi\include\c++\12.2.1\bits\alloc_traits.h ****   /**
  84:c:\program files (x86)\arm gnu toolchain arm-none-eabi\12.2 rel1\arm-none-eabi\include\c++\12.2.1\bits\alloc_traits.h ****    * @brief  Uniform interface to all allocator types.
ARM GAS  C:\Users\wyx12\AppData\Local\Temp\ccLiZMYq.s 			page 19


  85:c:\program files (x86)\arm gnu toolchain arm-none-eabi\12.2 rel1\arm-none-eabi\include\c++\12.2.1\bits\alloc_traits.h ****    * @headerfile memory
  86:c:\program files (x86)\arm gnu toolchain arm-none-eabi\12.2 rel1\arm-none-eabi\include\c++\12.2.1\bits\alloc_traits.h ****    * @ingroup allocators
  87:c:\program files (x86)\arm gnu toolchain arm-none-eabi\12.2 rel1\arm-none-eabi\include\c++\12.2.1\bits\alloc_traits.h ****    * @since C++11
  88:c:\program files (x86)\arm gnu toolchain arm-none-eabi\12.2 rel1\arm-none-eabi\include\c++\12.2.1\bits\alloc_traits.h ****   */
  89:c:\program files (x86)\arm gnu toolchain arm-none-eabi\12.2 rel1\arm-none-eabi\include\c++\12.2.1\bits\alloc_traits.h ****   template<typename _Alloc>
  90:c:\program files (x86)\arm gnu toolchain arm-none-eabi\12.2 rel1\arm-none-eabi\include\c++\12.2.1\bits\alloc_traits.h ****     struct allocator_traits : __allocator_traits_base
  91:c:\program files (x86)\arm gnu toolchain arm-none-eabi\12.2 rel1\arm-none-eabi\include\c++\12.2.1\bits\alloc_traits.h ****     {
  92:c:\program files (x86)\arm gnu toolchain arm-none-eabi\12.2 rel1\arm-none-eabi\include\c++\12.2.1\bits\alloc_traits.h ****       /// The allocator type
  93:c:\program files (x86)\arm gnu toolchain arm-none-eabi\12.2 rel1\arm-none-eabi\include\c++\12.2.1\bits\alloc_traits.h ****       typedef _Alloc allocator_type;
  94:c:\program files (x86)\arm gnu toolchain arm-none-eabi\12.2 rel1\arm-none-eabi\include\c++\12.2.1\bits\alloc_traits.h ****       /// The allocated type
  95:c:\program files (x86)\arm gnu toolchain arm-none-eabi\12.2 rel1\arm-none-eabi\include\c++\12.2.1\bits\alloc_traits.h ****       typedef typename _Alloc::value_type value_type;
  96:c:\program files (x86)\arm gnu toolchain arm-none-eabi\12.2 rel1\arm-none-eabi\include\c++\12.2.1\bits\alloc_traits.h **** 
  97:c:\program files (x86)\arm gnu toolchain arm-none-eabi\12.2 rel1\arm-none-eabi\include\c++\12.2.1\bits\alloc_traits.h ****       /**
  98:c:\program files (x86)\arm gnu toolchain arm-none-eabi\12.2 rel1\arm-none-eabi\include\c++\12.2.1\bits\alloc_traits.h ****        * @brief   The allocator's pointer type.
  99:c:\program files (x86)\arm gnu toolchain arm-none-eabi\12.2 rel1\arm-none-eabi\include\c++\12.2.1\bits\alloc_traits.h ****        *
 100:c:\program files (x86)\arm gnu toolchain arm-none-eabi\12.2 rel1\arm-none-eabi\include\c++\12.2.1\bits\alloc_traits.h ****        * @c Alloc::pointer if that type exists, otherwise @c value_type*
 101:c:\program files (x86)\arm gnu toolchain arm-none-eabi\12.2 rel1\arm-none-eabi\include\c++\12.2.1\bits\alloc_traits.h ****       */
 102:c:\program files (x86)\arm gnu toolchain arm-none-eabi\12.2 rel1\arm-none-eabi\include\c++\12.2.1\bits\alloc_traits.h ****       using pointer = __detected_or_t<value_type*, __pointer, _Alloc>;
 103:c:\program files (x86)\arm gnu toolchain arm-none-eabi\12.2 rel1\arm-none-eabi\include\c++\12.2.1\bits\alloc_traits.h **** 
 104:c:\program files (x86)\arm gnu toolchain arm-none-eabi\12.2 rel1\arm-none-eabi\include\c++\12.2.1\bits\alloc_traits.h ****     private:
 105:c:\program files (x86)\arm gnu toolchain arm-none-eabi\12.2 rel1\arm-none-eabi\include\c++\12.2.1\bits\alloc_traits.h ****       // Select _Func<_Alloc> or pointer_traits<pointer>::rebind<_Tp>
 106:c:\program files (x86)\arm gnu toolchain arm-none-eabi\12.2 rel1\arm-none-eabi\include\c++\12.2.1\bits\alloc_traits.h ****       template<template<typename> class _Func, typename _Tp, typename = void>
 107:c:\program files (x86)\arm gnu toolchain arm-none-eabi\12.2 rel1\arm-none-eabi\include\c++\12.2.1\bits\alloc_traits.h **** 	struct _Ptr
 108:c:\program files (x86)\arm gnu toolchain arm-none-eabi\12.2 rel1\arm-none-eabi\include\c++\12.2.1\bits\alloc_traits.h **** 	{
 109:c:\program files (x86)\arm gnu toolchain arm-none-eabi\12.2 rel1\arm-none-eabi\include\c++\12.2.1\bits\alloc_traits.h **** 	  using type = typename pointer_traits<pointer>::template rebind<_Tp>;
 110:c:\program files (x86)\arm gnu toolchain arm-none-eabi\12.2 rel1\arm-none-eabi\include\c++\12.2.1\bits\alloc_traits.h **** 	};
 111:c:\program files (x86)\arm gnu toolchain arm-none-eabi\12.2 rel1\arm-none-eabi\include\c++\12.2.1\bits\alloc_traits.h **** 
 112:c:\program files (x86)\arm gnu toolchain arm-none-eabi\12.2 rel1\arm-none-eabi\include\c++\12.2.1\bits\alloc_traits.h ****       template<template<typename> class _Func, typename _Tp>
 113:c:\program files (x86)\arm gnu toolchain arm-none-eabi\12.2 rel1\arm-none-eabi\include\c++\12.2.1\bits\alloc_traits.h **** 	struct _Ptr<_Func, _Tp, __void_t<_Func<_Alloc>>>
 114:c:\program files (x86)\arm gnu toolchain arm-none-eabi\12.2 rel1\arm-none-eabi\include\c++\12.2.1\bits\alloc_traits.h **** 	{
 115:c:\program files (x86)\arm gnu toolchain arm-none-eabi\12.2 rel1\arm-none-eabi\include\c++\12.2.1\bits\alloc_traits.h **** 	  using type = _Func<_Alloc>;
 116:c:\program files (x86)\arm gnu toolchain arm-none-eabi\12.2 rel1\arm-none-eabi\include\c++\12.2.1\bits\alloc_traits.h **** 	};
 117:c:\program files (x86)\arm gnu toolchain arm-none-eabi\12.2 rel1\arm-none-eabi\include\c++\12.2.1\bits\alloc_traits.h **** 
 118:c:\program files (x86)\arm gnu toolchain arm-none-eabi\12.2 rel1\arm-none-eabi\include\c++\12.2.1\bits\alloc_traits.h ****       // Select _A2::difference_type or pointer_traits<_Ptr>::difference_type
 119:c:\program files (x86)\arm gnu toolchain arm-none-eabi\12.2 rel1\arm-none-eabi\include\c++\12.2.1\bits\alloc_traits.h ****       template<typename _A2, typename _PtrT, typename = void>
 120:c:\program files (x86)\arm gnu toolchain arm-none-eabi\12.2 rel1\arm-none-eabi\include\c++\12.2.1\bits\alloc_traits.h **** 	struct _Diff
 121:c:\program files (x86)\arm gnu toolchain arm-none-eabi\12.2 rel1\arm-none-eabi\include\c++\12.2.1\bits\alloc_traits.h **** 	{ using type = typename pointer_traits<_PtrT>::difference_type; };
 122:c:\program files (x86)\arm gnu toolchain arm-none-eabi\12.2 rel1\arm-none-eabi\include\c++\12.2.1\bits\alloc_traits.h **** 
 123:c:\program files (x86)\arm gnu toolchain arm-none-eabi\12.2 rel1\arm-none-eabi\include\c++\12.2.1\bits\alloc_traits.h ****       template<typename _A2, typename _PtrT>
 124:c:\program files (x86)\arm gnu toolchain arm-none-eabi\12.2 rel1\arm-none-eabi\include\c++\12.2.1\bits\alloc_traits.h **** 	struct _Diff<_A2, _PtrT, __void_t<typename _A2::difference_type>>
 125:c:\program files (x86)\arm gnu toolchain arm-none-eabi\12.2 rel1\arm-none-eabi\include\c++\12.2.1\bits\alloc_traits.h **** 	{ using type = typename _A2::difference_type; };
 126:c:\program files (x86)\arm gnu toolchain arm-none-eabi\12.2 rel1\arm-none-eabi\include\c++\12.2.1\bits\alloc_traits.h **** 
 127:c:\program files (x86)\arm gnu toolchain arm-none-eabi\12.2 rel1\arm-none-eabi\include\c++\12.2.1\bits\alloc_traits.h ****       // Select _A2::size_type or make_unsigned<_DiffT>::type
 128:c:\program files (x86)\arm gnu toolchain arm-none-eabi\12.2 rel1\arm-none-eabi\include\c++\12.2.1\bits\alloc_traits.h ****       template<typename _A2, typename _DiffT, typename = void>
 129:c:\program files (x86)\arm gnu toolchain arm-none-eabi\12.2 rel1\arm-none-eabi\include\c++\12.2.1\bits\alloc_traits.h **** 	struct _Size : make_unsigned<_DiffT> { };
 130:c:\program files (x86)\arm gnu toolchain arm-none-eabi\12.2 rel1\arm-none-eabi\include\c++\12.2.1\bits\alloc_traits.h **** 
 131:c:\program files (x86)\arm gnu toolchain arm-none-eabi\12.2 rel1\arm-none-eabi\include\c++\12.2.1\bits\alloc_traits.h ****       template<typename _A2, typename _DiffT>
 132:c:\program files (x86)\arm gnu toolchain arm-none-eabi\12.2 rel1\arm-none-eabi\include\c++\12.2.1\bits\alloc_traits.h **** 	struct _Size<_A2, _DiffT, __void_t<typename _A2::size_type>>
 133:c:\program files (x86)\arm gnu toolchain arm-none-eabi\12.2 rel1\arm-none-eabi\include\c++\12.2.1\bits\alloc_traits.h **** 	{ using type = typename _A2::size_type; };
 134:c:\program files (x86)\arm gnu toolchain arm-none-eabi\12.2 rel1\arm-none-eabi\include\c++\12.2.1\bits\alloc_traits.h **** 
 135:c:\program files (x86)\arm gnu toolchain arm-none-eabi\12.2 rel1\arm-none-eabi\include\c++\12.2.1\bits\alloc_traits.h ****     public:
 136:c:\program files (x86)\arm gnu toolchain arm-none-eabi\12.2 rel1\arm-none-eabi\include\c++\12.2.1\bits\alloc_traits.h ****       /**
 137:c:\program files (x86)\arm gnu toolchain arm-none-eabi\12.2 rel1\arm-none-eabi\include\c++\12.2.1\bits\alloc_traits.h ****        * @brief   The allocator's const pointer type.
 138:c:\program files (x86)\arm gnu toolchain arm-none-eabi\12.2 rel1\arm-none-eabi\include\c++\12.2.1\bits\alloc_traits.h ****        *
 139:c:\program files (x86)\arm gnu toolchain arm-none-eabi\12.2 rel1\arm-none-eabi\include\c++\12.2.1\bits\alloc_traits.h ****        * @c Alloc::const_pointer if that type exists, otherwise
 140:c:\program files (x86)\arm gnu toolchain arm-none-eabi\12.2 rel1\arm-none-eabi\include\c++\12.2.1\bits\alloc_traits.h ****        * <tt> pointer_traits<pointer>::rebind<const value_type> </tt>
 141:c:\program files (x86)\arm gnu toolchain arm-none-eabi\12.2 rel1\arm-none-eabi\include\c++\12.2.1\bits\alloc_traits.h ****       */
ARM GAS  C:\Users\wyx12\AppData\Local\Temp\ccLiZMYq.s 			page 20


 142:c:\program files (x86)\arm gnu toolchain arm-none-eabi\12.2 rel1\arm-none-eabi\include\c++\12.2.1\bits\alloc_traits.h ****       using const_pointer = typename _Ptr<__c_pointer, const value_type>::type;
 143:c:\program files (x86)\arm gnu toolchain arm-none-eabi\12.2 rel1\arm-none-eabi\include\c++\12.2.1\bits\alloc_traits.h **** 
 144:c:\program files (x86)\arm gnu toolchain arm-none-eabi\12.2 rel1\arm-none-eabi\include\c++\12.2.1\bits\alloc_traits.h ****       /**
 145:c:\program files (x86)\arm gnu toolchain arm-none-eabi\12.2 rel1\arm-none-eabi\include\c++\12.2.1\bits\alloc_traits.h ****        * @brief   The allocator's void pointer type.
 146:c:\program files (x86)\arm gnu toolchain arm-none-eabi\12.2 rel1\arm-none-eabi\include\c++\12.2.1\bits\alloc_traits.h ****        *
 147:c:\program files (x86)\arm gnu toolchain arm-none-eabi\12.2 rel1\arm-none-eabi\include\c++\12.2.1\bits\alloc_traits.h ****        * @c Alloc::void_pointer if that type exists, otherwise
 148:c:\program files (x86)\arm gnu toolchain arm-none-eabi\12.2 rel1\arm-none-eabi\include\c++\12.2.1\bits\alloc_traits.h ****        * <tt> pointer_traits<pointer>::rebind<void> </tt>
 149:c:\program files (x86)\arm gnu toolchain arm-none-eabi\12.2 rel1\arm-none-eabi\include\c++\12.2.1\bits\alloc_traits.h ****       */
 150:c:\program files (x86)\arm gnu toolchain arm-none-eabi\12.2 rel1\arm-none-eabi\include\c++\12.2.1\bits\alloc_traits.h ****       using void_pointer = typename _Ptr<__v_pointer, void>::type;
 151:c:\program files (x86)\arm gnu toolchain arm-none-eabi\12.2 rel1\arm-none-eabi\include\c++\12.2.1\bits\alloc_traits.h **** 
 152:c:\program files (x86)\arm gnu toolchain arm-none-eabi\12.2 rel1\arm-none-eabi\include\c++\12.2.1\bits\alloc_traits.h ****       /**
 153:c:\program files (x86)\arm gnu toolchain arm-none-eabi\12.2 rel1\arm-none-eabi\include\c++\12.2.1\bits\alloc_traits.h ****        * @brief   The allocator's const void pointer type.
 154:c:\program files (x86)\arm gnu toolchain arm-none-eabi\12.2 rel1\arm-none-eabi\include\c++\12.2.1\bits\alloc_traits.h ****        *
 155:c:\program files (x86)\arm gnu toolchain arm-none-eabi\12.2 rel1\arm-none-eabi\include\c++\12.2.1\bits\alloc_traits.h ****        * @c Alloc::const_void_pointer if that type exists, otherwise
 156:c:\program files (x86)\arm gnu toolchain arm-none-eabi\12.2 rel1\arm-none-eabi\include\c++\12.2.1\bits\alloc_traits.h ****        * <tt> pointer_traits<pointer>::rebind<const void> </tt>
 157:c:\program files (x86)\arm gnu toolchain arm-none-eabi\12.2 rel1\arm-none-eabi\include\c++\12.2.1\bits\alloc_traits.h ****       */
 158:c:\program files (x86)\arm gnu toolchain arm-none-eabi\12.2 rel1\arm-none-eabi\include\c++\12.2.1\bits\alloc_traits.h ****       using const_void_pointer = typename _Ptr<__cv_pointer, const void>::type;
 159:c:\program files (x86)\arm gnu toolchain arm-none-eabi\12.2 rel1\arm-none-eabi\include\c++\12.2.1\bits\alloc_traits.h **** 
 160:c:\program files (x86)\arm gnu toolchain arm-none-eabi\12.2 rel1\arm-none-eabi\include\c++\12.2.1\bits\alloc_traits.h ****       /**
 161:c:\program files (x86)\arm gnu toolchain arm-none-eabi\12.2 rel1\arm-none-eabi\include\c++\12.2.1\bits\alloc_traits.h ****        * @brief   The allocator's difference type
 162:c:\program files (x86)\arm gnu toolchain arm-none-eabi\12.2 rel1\arm-none-eabi\include\c++\12.2.1\bits\alloc_traits.h ****        *
 163:c:\program files (x86)\arm gnu toolchain arm-none-eabi\12.2 rel1\arm-none-eabi\include\c++\12.2.1\bits\alloc_traits.h ****        * @c Alloc::difference_type if that type exists, otherwise
 164:c:\program files (x86)\arm gnu toolchain arm-none-eabi\12.2 rel1\arm-none-eabi\include\c++\12.2.1\bits\alloc_traits.h ****        * <tt> pointer_traits<pointer>::difference_type </tt>
 165:c:\program files (x86)\arm gnu toolchain arm-none-eabi\12.2 rel1\arm-none-eabi\include\c++\12.2.1\bits\alloc_traits.h ****       */
 166:c:\program files (x86)\arm gnu toolchain arm-none-eabi\12.2 rel1\arm-none-eabi\include\c++\12.2.1\bits\alloc_traits.h ****       using difference_type = typename _Diff<_Alloc, pointer>::type;
 167:c:\program files (x86)\arm gnu toolchain arm-none-eabi\12.2 rel1\arm-none-eabi\include\c++\12.2.1\bits\alloc_traits.h **** 
 168:c:\program files (x86)\arm gnu toolchain arm-none-eabi\12.2 rel1\arm-none-eabi\include\c++\12.2.1\bits\alloc_traits.h ****       /**
 169:c:\program files (x86)\arm gnu toolchain arm-none-eabi\12.2 rel1\arm-none-eabi\include\c++\12.2.1\bits\alloc_traits.h ****        * @brief   The allocator's size type
 170:c:\program files (x86)\arm gnu toolchain arm-none-eabi\12.2 rel1\arm-none-eabi\include\c++\12.2.1\bits\alloc_traits.h ****        *
 171:c:\program files (x86)\arm gnu toolchain arm-none-eabi\12.2 rel1\arm-none-eabi\include\c++\12.2.1\bits\alloc_traits.h ****        * @c Alloc::size_type if that type exists, otherwise
 172:c:\program files (x86)\arm gnu toolchain arm-none-eabi\12.2 rel1\arm-none-eabi\include\c++\12.2.1\bits\alloc_traits.h ****        * <tt> make_unsigned<difference_type>::type </tt>
 173:c:\program files (x86)\arm gnu toolchain arm-none-eabi\12.2 rel1\arm-none-eabi\include\c++\12.2.1\bits\alloc_traits.h ****       */
 174:c:\program files (x86)\arm gnu toolchain arm-none-eabi\12.2 rel1\arm-none-eabi\include\c++\12.2.1\bits\alloc_traits.h ****       using size_type = typename _Size<_Alloc, difference_type>::type;
 175:c:\program files (x86)\arm gnu toolchain arm-none-eabi\12.2 rel1\arm-none-eabi\include\c++\12.2.1\bits\alloc_traits.h **** 
 176:c:\program files (x86)\arm gnu toolchain arm-none-eabi\12.2 rel1\arm-none-eabi\include\c++\12.2.1\bits\alloc_traits.h ****       /**
 177:c:\program files (x86)\arm gnu toolchain arm-none-eabi\12.2 rel1\arm-none-eabi\include\c++\12.2.1\bits\alloc_traits.h ****        * @brief   How the allocator is propagated on copy assignment
 178:c:\program files (x86)\arm gnu toolchain arm-none-eabi\12.2 rel1\arm-none-eabi\include\c++\12.2.1\bits\alloc_traits.h ****        *
 179:c:\program files (x86)\arm gnu toolchain arm-none-eabi\12.2 rel1\arm-none-eabi\include\c++\12.2.1\bits\alloc_traits.h ****        * @c Alloc::propagate_on_container_copy_assignment if that type exists,
 180:c:\program files (x86)\arm gnu toolchain arm-none-eabi\12.2 rel1\arm-none-eabi\include\c++\12.2.1\bits\alloc_traits.h ****        * otherwise @c false_type
 181:c:\program files (x86)\arm gnu toolchain arm-none-eabi\12.2 rel1\arm-none-eabi\include\c++\12.2.1\bits\alloc_traits.h ****       */
 182:c:\program files (x86)\arm gnu toolchain arm-none-eabi\12.2 rel1\arm-none-eabi\include\c++\12.2.1\bits\alloc_traits.h ****       using propagate_on_container_copy_assignment
 183:c:\program files (x86)\arm gnu toolchain arm-none-eabi\12.2 rel1\arm-none-eabi\include\c++\12.2.1\bits\alloc_traits.h **** 	= __detected_or_t<false_type, __pocca, _Alloc>;
 184:c:\program files (x86)\arm gnu toolchain arm-none-eabi\12.2 rel1\arm-none-eabi\include\c++\12.2.1\bits\alloc_traits.h **** 
 185:c:\program files (x86)\arm gnu toolchain arm-none-eabi\12.2 rel1\arm-none-eabi\include\c++\12.2.1\bits\alloc_traits.h ****       /**
 186:c:\program files (x86)\arm gnu toolchain arm-none-eabi\12.2 rel1\arm-none-eabi\include\c++\12.2.1\bits\alloc_traits.h ****        * @brief   How the allocator is propagated on move assignment
 187:c:\program files (x86)\arm gnu toolchain arm-none-eabi\12.2 rel1\arm-none-eabi\include\c++\12.2.1\bits\alloc_traits.h ****        *
 188:c:\program files (x86)\arm gnu toolchain arm-none-eabi\12.2 rel1\arm-none-eabi\include\c++\12.2.1\bits\alloc_traits.h ****        * @c Alloc::propagate_on_container_move_assignment if that type exists,
 189:c:\program files (x86)\arm gnu toolchain arm-none-eabi\12.2 rel1\arm-none-eabi\include\c++\12.2.1\bits\alloc_traits.h ****        * otherwise @c false_type
 190:c:\program files (x86)\arm gnu toolchain arm-none-eabi\12.2 rel1\arm-none-eabi\include\c++\12.2.1\bits\alloc_traits.h ****       */
 191:c:\program files (x86)\arm gnu toolchain arm-none-eabi\12.2 rel1\arm-none-eabi\include\c++\12.2.1\bits\alloc_traits.h ****       using propagate_on_container_move_assignment
 192:c:\program files (x86)\arm gnu toolchain arm-none-eabi\12.2 rel1\arm-none-eabi\include\c++\12.2.1\bits\alloc_traits.h **** 	= __detected_or_t<false_type, __pocma, _Alloc>;
 193:c:\program files (x86)\arm gnu toolchain arm-none-eabi\12.2 rel1\arm-none-eabi\include\c++\12.2.1\bits\alloc_traits.h **** 
 194:c:\program files (x86)\arm gnu toolchain arm-none-eabi\12.2 rel1\arm-none-eabi\include\c++\12.2.1\bits\alloc_traits.h ****       /**
 195:c:\program files (x86)\arm gnu toolchain arm-none-eabi\12.2 rel1\arm-none-eabi\include\c++\12.2.1\bits\alloc_traits.h ****        * @brief   How the allocator is propagated on swap
 196:c:\program files (x86)\arm gnu toolchain arm-none-eabi\12.2 rel1\arm-none-eabi\include\c++\12.2.1\bits\alloc_traits.h ****        *
 197:c:\program files (x86)\arm gnu toolchain arm-none-eabi\12.2 rel1\arm-none-eabi\include\c++\12.2.1\bits\alloc_traits.h ****        * @c Alloc::propagate_on_container_swap if that type exists,
 198:c:\program files (x86)\arm gnu toolchain arm-none-eabi\12.2 rel1\arm-none-eabi\include\c++\12.2.1\bits\alloc_traits.h ****        * otherwise @c false_type
ARM GAS  C:\Users\wyx12\AppData\Local\Temp\ccLiZMYq.s 			page 21


 199:c:\program files (x86)\arm gnu toolchain arm-none-eabi\12.2 rel1\arm-none-eabi\include\c++\12.2.1\bits\alloc_traits.h ****       */
 200:c:\program files (x86)\arm gnu toolchain arm-none-eabi\12.2 rel1\arm-none-eabi\include\c++\12.2.1\bits\alloc_traits.h ****       using propagate_on_container_swap
 201:c:\program files (x86)\arm gnu toolchain arm-none-eabi\12.2 rel1\arm-none-eabi\include\c++\12.2.1\bits\alloc_traits.h **** 	= __detected_or_t<false_type, __pocs, _Alloc>;
 202:c:\program files (x86)\arm gnu toolchain arm-none-eabi\12.2 rel1\arm-none-eabi\include\c++\12.2.1\bits\alloc_traits.h **** 
 203:c:\program files (x86)\arm gnu toolchain arm-none-eabi\12.2 rel1\arm-none-eabi\include\c++\12.2.1\bits\alloc_traits.h ****       /**
 204:c:\program files (x86)\arm gnu toolchain arm-none-eabi\12.2 rel1\arm-none-eabi\include\c++\12.2.1\bits\alloc_traits.h ****        * @brief   Whether all instances of the allocator type compare equal.
 205:c:\program files (x86)\arm gnu toolchain arm-none-eabi\12.2 rel1\arm-none-eabi\include\c++\12.2.1\bits\alloc_traits.h ****        *
 206:c:\program files (x86)\arm gnu toolchain arm-none-eabi\12.2 rel1\arm-none-eabi\include\c++\12.2.1\bits\alloc_traits.h ****        * @c Alloc::is_always_equal if that type exists,
 207:c:\program files (x86)\arm gnu toolchain arm-none-eabi\12.2 rel1\arm-none-eabi\include\c++\12.2.1\bits\alloc_traits.h ****        * otherwise @c is_empty<Alloc>::type
 208:c:\program files (x86)\arm gnu toolchain arm-none-eabi\12.2 rel1\arm-none-eabi\include\c++\12.2.1\bits\alloc_traits.h ****       */
 209:c:\program files (x86)\arm gnu toolchain arm-none-eabi\12.2 rel1\arm-none-eabi\include\c++\12.2.1\bits\alloc_traits.h ****       using is_always_equal
 210:c:\program files (x86)\arm gnu toolchain arm-none-eabi\12.2 rel1\arm-none-eabi\include\c++\12.2.1\bits\alloc_traits.h **** 	= __detected_or_t<typename is_empty<_Alloc>::type, __equal, _Alloc>;
 211:c:\program files (x86)\arm gnu toolchain arm-none-eabi\12.2 rel1\arm-none-eabi\include\c++\12.2.1\bits\alloc_traits.h **** 
 212:c:\program files (x86)\arm gnu toolchain arm-none-eabi\12.2 rel1\arm-none-eabi\include\c++\12.2.1\bits\alloc_traits.h ****       template<typename _Tp>
 213:c:\program files (x86)\arm gnu toolchain arm-none-eabi\12.2 rel1\arm-none-eabi\include\c++\12.2.1\bits\alloc_traits.h **** 	using rebind_alloc = __alloc_rebind<_Alloc, _Tp>;
 214:c:\program files (x86)\arm gnu toolchain arm-none-eabi\12.2 rel1\arm-none-eabi\include\c++\12.2.1\bits\alloc_traits.h ****       template<typename _Tp>
 215:c:\program files (x86)\arm gnu toolchain arm-none-eabi\12.2 rel1\arm-none-eabi\include\c++\12.2.1\bits\alloc_traits.h **** 	using rebind_traits = allocator_traits<rebind_alloc<_Tp>>;
 216:c:\program files (x86)\arm gnu toolchain arm-none-eabi\12.2 rel1\arm-none-eabi\include\c++\12.2.1\bits\alloc_traits.h **** 
 217:c:\program files (x86)\arm gnu toolchain arm-none-eabi\12.2 rel1\arm-none-eabi\include\c++\12.2.1\bits\alloc_traits.h ****     private:
 218:c:\program files (x86)\arm gnu toolchain arm-none-eabi\12.2 rel1\arm-none-eabi\include\c++\12.2.1\bits\alloc_traits.h ****       template<typename _Alloc2>
 219:c:\program files (x86)\arm gnu toolchain arm-none-eabi\12.2 rel1\arm-none-eabi\include\c++\12.2.1\bits\alloc_traits.h **** 	static constexpr auto
 220:c:\program files (x86)\arm gnu toolchain arm-none-eabi\12.2 rel1\arm-none-eabi\include\c++\12.2.1\bits\alloc_traits.h **** 	_S_allocate(_Alloc2& __a, size_type __n, const_void_pointer __hint, int)
 221:c:\program files (x86)\arm gnu toolchain arm-none-eabi\12.2 rel1\arm-none-eabi\include\c++\12.2.1\bits\alloc_traits.h **** 	-> decltype(__a.allocate(__n, __hint))
 222:c:\program files (x86)\arm gnu toolchain arm-none-eabi\12.2 rel1\arm-none-eabi\include\c++\12.2.1\bits\alloc_traits.h **** 	{ return __a.allocate(__n, __hint); }
 223:c:\program files (x86)\arm gnu toolchain arm-none-eabi\12.2 rel1\arm-none-eabi\include\c++\12.2.1\bits\alloc_traits.h **** 
 224:c:\program files (x86)\arm gnu toolchain arm-none-eabi\12.2 rel1\arm-none-eabi\include\c++\12.2.1\bits\alloc_traits.h ****       template<typename _Alloc2>
 225:c:\program files (x86)\arm gnu toolchain arm-none-eabi\12.2 rel1\arm-none-eabi\include\c++\12.2.1\bits\alloc_traits.h **** 	static constexpr pointer
 226:c:\program files (x86)\arm gnu toolchain arm-none-eabi\12.2 rel1\arm-none-eabi\include\c++\12.2.1\bits\alloc_traits.h **** 	_S_allocate(_Alloc2& __a, size_type __n, const_void_pointer, ...)
 227:c:\program files (x86)\arm gnu toolchain arm-none-eabi\12.2 rel1\arm-none-eabi\include\c++\12.2.1\bits\alloc_traits.h **** 	{ return __a.allocate(__n); }
 228:c:\program files (x86)\arm gnu toolchain arm-none-eabi\12.2 rel1\arm-none-eabi\include\c++\12.2.1\bits\alloc_traits.h **** 
 229:c:\program files (x86)\arm gnu toolchain arm-none-eabi\12.2 rel1\arm-none-eabi\include\c++\12.2.1\bits\alloc_traits.h ****       template<typename _Tp, typename... _Args>
 230:c:\program files (x86)\arm gnu toolchain arm-none-eabi\12.2 rel1\arm-none-eabi\include\c++\12.2.1\bits\alloc_traits.h **** 	struct __construct_helper
 231:c:\program files (x86)\arm gnu toolchain arm-none-eabi\12.2 rel1\arm-none-eabi\include\c++\12.2.1\bits\alloc_traits.h **** 	{
 232:c:\program files (x86)\arm gnu toolchain arm-none-eabi\12.2 rel1\arm-none-eabi\include\c++\12.2.1\bits\alloc_traits.h **** 	  template<typename _Alloc2,
 233:c:\program files (x86)\arm gnu toolchain arm-none-eabi\12.2 rel1\arm-none-eabi\include\c++\12.2.1\bits\alloc_traits.h **** 	    typename = decltype(std::declval<_Alloc2*>()->construct(
 234:c:\program files (x86)\arm gnu toolchain arm-none-eabi\12.2 rel1\arm-none-eabi\include\c++\12.2.1\bits\alloc_traits.h **** 		  std::declval<_Tp*>(), std::declval<_Args>()...))>
 235:c:\program files (x86)\arm gnu toolchain arm-none-eabi\12.2 rel1\arm-none-eabi\include\c++\12.2.1\bits\alloc_traits.h **** 	    static true_type __test(int);
 236:c:\program files (x86)\arm gnu toolchain arm-none-eabi\12.2 rel1\arm-none-eabi\include\c++\12.2.1\bits\alloc_traits.h **** 
 237:c:\program files (x86)\arm gnu toolchain arm-none-eabi\12.2 rel1\arm-none-eabi\include\c++\12.2.1\bits\alloc_traits.h **** 	  template<typename>
 238:c:\program files (x86)\arm gnu toolchain arm-none-eabi\12.2 rel1\arm-none-eabi\include\c++\12.2.1\bits\alloc_traits.h **** 	    static false_type __test(...);
 239:c:\program files (x86)\arm gnu toolchain arm-none-eabi\12.2 rel1\arm-none-eabi\include\c++\12.2.1\bits\alloc_traits.h **** 
 240:c:\program files (x86)\arm gnu toolchain arm-none-eabi\12.2 rel1\arm-none-eabi\include\c++\12.2.1\bits\alloc_traits.h **** 	  using type = decltype(__test<_Alloc>(0));
 241:c:\program files (x86)\arm gnu toolchain arm-none-eabi\12.2 rel1\arm-none-eabi\include\c++\12.2.1\bits\alloc_traits.h **** 	};
 242:c:\program files (x86)\arm gnu toolchain arm-none-eabi\12.2 rel1\arm-none-eabi\include\c++\12.2.1\bits\alloc_traits.h **** 
 243:c:\program files (x86)\arm gnu toolchain arm-none-eabi\12.2 rel1\arm-none-eabi\include\c++\12.2.1\bits\alloc_traits.h ****       template<typename _Tp, typename... _Args>
 244:c:\program files (x86)\arm gnu toolchain arm-none-eabi\12.2 rel1\arm-none-eabi\include\c++\12.2.1\bits\alloc_traits.h **** 	using __has_construct
 245:c:\program files (x86)\arm gnu toolchain arm-none-eabi\12.2 rel1\arm-none-eabi\include\c++\12.2.1\bits\alloc_traits.h **** 	  = typename __construct_helper<_Tp, _Args...>::type;
 246:c:\program files (x86)\arm gnu toolchain arm-none-eabi\12.2 rel1\arm-none-eabi\include\c++\12.2.1\bits\alloc_traits.h **** 
 247:c:\program files (x86)\arm gnu toolchain arm-none-eabi\12.2 rel1\arm-none-eabi\include\c++\12.2.1\bits\alloc_traits.h ****       template<typename _Tp, typename... _Args>
 248:c:\program files (x86)\arm gnu toolchain arm-none-eabi\12.2 rel1\arm-none-eabi\include\c++\12.2.1\bits\alloc_traits.h **** 	static _GLIBCXX14_CONSTEXPR _Require<__has_construct<_Tp, _Args...>>
 249:c:\program files (x86)\arm gnu toolchain arm-none-eabi\12.2 rel1\arm-none-eabi\include\c++\12.2.1\bits\alloc_traits.h **** 	_S_construct(_Alloc& __a, _Tp* __p, _Args&&... __args)
 250:c:\program files (x86)\arm gnu toolchain arm-none-eabi\12.2 rel1\arm-none-eabi\include\c++\12.2.1\bits\alloc_traits.h **** 	noexcept(noexcept(__a.construct(__p, std::forward<_Args>(__args)...)))
 251:c:\program files (x86)\arm gnu toolchain arm-none-eabi\12.2 rel1\arm-none-eabi\include\c++\12.2.1\bits\alloc_traits.h **** 	{ __a.construct(__p, std::forward<_Args>(__args)...); }
 252:c:\program files (x86)\arm gnu toolchain arm-none-eabi\12.2 rel1\arm-none-eabi\include\c++\12.2.1\bits\alloc_traits.h **** 
 253:c:\program files (x86)\arm gnu toolchain arm-none-eabi\12.2 rel1\arm-none-eabi\include\c++\12.2.1\bits\alloc_traits.h ****       template<typename _Tp, typename... _Args>
 254:c:\program files (x86)\arm gnu toolchain arm-none-eabi\12.2 rel1\arm-none-eabi\include\c++\12.2.1\bits\alloc_traits.h **** 	static _GLIBCXX14_CONSTEXPR
 255:c:\program files (x86)\arm gnu toolchain arm-none-eabi\12.2 rel1\arm-none-eabi\include\c++\12.2.1\bits\alloc_traits.h **** 	_Require<__and_<__not_<__has_construct<_Tp, _Args...>>,
ARM GAS  C:\Users\wyx12\AppData\Local\Temp\ccLiZMYq.s 			page 22


 256:c:\program files (x86)\arm gnu toolchain arm-none-eabi\12.2 rel1\arm-none-eabi\include\c++\12.2.1\bits\alloc_traits.h **** 			       is_constructible<_Tp, _Args...>>>
 257:c:\program files (x86)\arm gnu toolchain arm-none-eabi\12.2 rel1\arm-none-eabi\include\c++\12.2.1\bits\alloc_traits.h **** 	_S_construct(_Alloc&, _Tp* __p, _Args&&... __args)
 258:c:\program files (x86)\arm gnu toolchain arm-none-eabi\12.2 rel1\arm-none-eabi\include\c++\12.2.1\bits\alloc_traits.h **** 	noexcept(std::is_nothrow_constructible<_Tp, _Args...>::value)
 259:c:\program files (x86)\arm gnu toolchain arm-none-eabi\12.2 rel1\arm-none-eabi\include\c++\12.2.1\bits\alloc_traits.h **** 	{
 260:c:\program files (x86)\arm gnu toolchain arm-none-eabi\12.2 rel1\arm-none-eabi\include\c++\12.2.1\bits\alloc_traits.h **** #if __cplusplus <= 201703L
 261:c:\program files (x86)\arm gnu toolchain arm-none-eabi\12.2 rel1\arm-none-eabi\include\c++\12.2.1\bits\alloc_traits.h **** 	  ::new((void*)__p) _Tp(std::forward<_Args>(__args)...);
 262:c:\program files (x86)\arm gnu toolchain arm-none-eabi\12.2 rel1\arm-none-eabi\include\c++\12.2.1\bits\alloc_traits.h **** #else
 263:c:\program files (x86)\arm gnu toolchain arm-none-eabi\12.2 rel1\arm-none-eabi\include\c++\12.2.1\bits\alloc_traits.h **** 	  std::construct_at(__p, std::forward<_Args>(__args)...);
 264:c:\program files (x86)\arm gnu toolchain arm-none-eabi\12.2 rel1\arm-none-eabi\include\c++\12.2.1\bits\alloc_traits.h **** #endif
 265:c:\program files (x86)\arm gnu toolchain arm-none-eabi\12.2 rel1\arm-none-eabi\include\c++\12.2.1\bits\alloc_traits.h **** 	}
 266:c:\program files (x86)\arm gnu toolchain arm-none-eabi\12.2 rel1\arm-none-eabi\include\c++\12.2.1\bits\alloc_traits.h **** 
 267:c:\program files (x86)\arm gnu toolchain arm-none-eabi\12.2 rel1\arm-none-eabi\include\c++\12.2.1\bits\alloc_traits.h ****       template<typename _Alloc2, typename _Tp>
 268:c:\program files (x86)\arm gnu toolchain arm-none-eabi\12.2 rel1\arm-none-eabi\include\c++\12.2.1\bits\alloc_traits.h **** 	static _GLIBCXX14_CONSTEXPR auto
 269:c:\program files (x86)\arm gnu toolchain arm-none-eabi\12.2 rel1\arm-none-eabi\include\c++\12.2.1\bits\alloc_traits.h **** 	_S_destroy(_Alloc2& __a, _Tp* __p, int)
 270:c:\program files (x86)\arm gnu toolchain arm-none-eabi\12.2 rel1\arm-none-eabi\include\c++\12.2.1\bits\alloc_traits.h **** 	noexcept(noexcept(__a.destroy(__p)))
 271:c:\program files (x86)\arm gnu toolchain arm-none-eabi\12.2 rel1\arm-none-eabi\include\c++\12.2.1\bits\alloc_traits.h **** 	-> decltype(__a.destroy(__p))
 272:c:\program files (x86)\arm gnu toolchain arm-none-eabi\12.2 rel1\arm-none-eabi\include\c++\12.2.1\bits\alloc_traits.h **** 	{ __a.destroy(__p); }
 273:c:\program files (x86)\arm gnu toolchain arm-none-eabi\12.2 rel1\arm-none-eabi\include\c++\12.2.1\bits\alloc_traits.h **** 
 274:c:\program files (x86)\arm gnu toolchain arm-none-eabi\12.2 rel1\arm-none-eabi\include\c++\12.2.1\bits\alloc_traits.h ****       template<typename _Alloc2, typename _Tp>
 275:c:\program files (x86)\arm gnu toolchain arm-none-eabi\12.2 rel1\arm-none-eabi\include\c++\12.2.1\bits\alloc_traits.h **** 	static _GLIBCXX14_CONSTEXPR void
 276:c:\program files (x86)\arm gnu toolchain arm-none-eabi\12.2 rel1\arm-none-eabi\include\c++\12.2.1\bits\alloc_traits.h **** 	_S_destroy(_Alloc2&, _Tp* __p, ...)
 277:c:\program files (x86)\arm gnu toolchain arm-none-eabi\12.2 rel1\arm-none-eabi\include\c++\12.2.1\bits\alloc_traits.h **** 	noexcept(std::is_nothrow_destructible<_Tp>::value)
 278:c:\program files (x86)\arm gnu toolchain arm-none-eabi\12.2 rel1\arm-none-eabi\include\c++\12.2.1\bits\alloc_traits.h **** 	{ std::_Destroy(__p); }
 279:c:\program files (x86)\arm gnu toolchain arm-none-eabi\12.2 rel1\arm-none-eabi\include\c++\12.2.1\bits\alloc_traits.h **** 
 280:c:\program files (x86)\arm gnu toolchain arm-none-eabi\12.2 rel1\arm-none-eabi\include\c++\12.2.1\bits\alloc_traits.h ****       template<typename _Alloc2>
 281:c:\program files (x86)\arm gnu toolchain arm-none-eabi\12.2 rel1\arm-none-eabi\include\c++\12.2.1\bits\alloc_traits.h **** 	static constexpr auto
 282:c:\program files (x86)\arm gnu toolchain arm-none-eabi\12.2 rel1\arm-none-eabi\include\c++\12.2.1\bits\alloc_traits.h **** 	_S_max_size(_Alloc2& __a, int)
 283:c:\program files (x86)\arm gnu toolchain arm-none-eabi\12.2 rel1\arm-none-eabi\include\c++\12.2.1\bits\alloc_traits.h **** 	-> decltype(__a.max_size())
 284:c:\program files (x86)\arm gnu toolchain arm-none-eabi\12.2 rel1\arm-none-eabi\include\c++\12.2.1\bits\alloc_traits.h **** 	{ return __a.max_size(); }
 285:c:\program files (x86)\arm gnu toolchain arm-none-eabi\12.2 rel1\arm-none-eabi\include\c++\12.2.1\bits\alloc_traits.h **** 
 286:c:\program files (x86)\arm gnu toolchain arm-none-eabi\12.2 rel1\arm-none-eabi\include\c++\12.2.1\bits\alloc_traits.h ****       template<typename _Alloc2>
 287:c:\program files (x86)\arm gnu toolchain arm-none-eabi\12.2 rel1\arm-none-eabi\include\c++\12.2.1\bits\alloc_traits.h **** 	static constexpr size_type
 288:c:\program files (x86)\arm gnu toolchain arm-none-eabi\12.2 rel1\arm-none-eabi\include\c++\12.2.1\bits\alloc_traits.h **** 	_S_max_size(_Alloc2&, ...)
 289:c:\program files (x86)\arm gnu toolchain arm-none-eabi\12.2 rel1\arm-none-eabi\include\c++\12.2.1\bits\alloc_traits.h **** 	{
 290:c:\program files (x86)\arm gnu toolchain arm-none-eabi\12.2 rel1\arm-none-eabi\include\c++\12.2.1\bits\alloc_traits.h **** 	  // _GLIBCXX_RESOLVE_LIB_DEFECTS
 291:c:\program files (x86)\arm gnu toolchain arm-none-eabi\12.2 rel1\arm-none-eabi\include\c++\12.2.1\bits\alloc_traits.h **** 	  // 2466. allocator_traits::max_size() default behavior is incorrect
 292:c:\program files (x86)\arm gnu toolchain arm-none-eabi\12.2 rel1\arm-none-eabi\include\c++\12.2.1\bits\alloc_traits.h **** 	  return __gnu_cxx::__numeric_traits<size_type>::__max
 293:c:\program files (x86)\arm gnu toolchain arm-none-eabi\12.2 rel1\arm-none-eabi\include\c++\12.2.1\bits\alloc_traits.h **** 	    / sizeof(value_type);
 294:c:\program files (x86)\arm gnu toolchain arm-none-eabi\12.2 rel1\arm-none-eabi\include\c++\12.2.1\bits\alloc_traits.h **** 	}
 295:c:\program files (x86)\arm gnu toolchain arm-none-eabi\12.2 rel1\arm-none-eabi\include\c++\12.2.1\bits\alloc_traits.h **** 
 296:c:\program files (x86)\arm gnu toolchain arm-none-eabi\12.2 rel1\arm-none-eabi\include\c++\12.2.1\bits\alloc_traits.h ****       template<typename _Alloc2>
 297:c:\program files (x86)\arm gnu toolchain arm-none-eabi\12.2 rel1\arm-none-eabi\include\c++\12.2.1\bits\alloc_traits.h **** 	static constexpr auto
 298:c:\program files (x86)\arm gnu toolchain arm-none-eabi\12.2 rel1\arm-none-eabi\include\c++\12.2.1\bits\alloc_traits.h **** 	_S_select(_Alloc2& __a, int)
 299:c:\program files (x86)\arm gnu toolchain arm-none-eabi\12.2 rel1\arm-none-eabi\include\c++\12.2.1\bits\alloc_traits.h **** 	-> decltype(__a.select_on_container_copy_construction())
 300:c:\program files (x86)\arm gnu toolchain arm-none-eabi\12.2 rel1\arm-none-eabi\include\c++\12.2.1\bits\alloc_traits.h **** 	{ return __a.select_on_container_copy_construction(); }
 301:c:\program files (x86)\arm gnu toolchain arm-none-eabi\12.2 rel1\arm-none-eabi\include\c++\12.2.1\bits\alloc_traits.h **** 
 302:c:\program files (x86)\arm gnu toolchain arm-none-eabi\12.2 rel1\arm-none-eabi\include\c++\12.2.1\bits\alloc_traits.h ****       template<typename _Alloc2>
 303:c:\program files (x86)\arm gnu toolchain arm-none-eabi\12.2 rel1\arm-none-eabi\include\c++\12.2.1\bits\alloc_traits.h **** 	static constexpr _Alloc2
 304:c:\program files (x86)\arm gnu toolchain arm-none-eabi\12.2 rel1\arm-none-eabi\include\c++\12.2.1\bits\alloc_traits.h **** 	_S_select(_Alloc2& __a, ...)
 305:c:\program files (x86)\arm gnu toolchain arm-none-eabi\12.2 rel1\arm-none-eabi\include\c++\12.2.1\bits\alloc_traits.h **** 	{ return __a; }
 306:c:\program files (x86)\arm gnu toolchain arm-none-eabi\12.2 rel1\arm-none-eabi\include\c++\12.2.1\bits\alloc_traits.h **** 
 307:c:\program files (x86)\arm gnu toolchain arm-none-eabi\12.2 rel1\arm-none-eabi\include\c++\12.2.1\bits\alloc_traits.h ****     public:
 308:c:\program files (x86)\arm gnu toolchain arm-none-eabi\12.2 rel1\arm-none-eabi\include\c++\12.2.1\bits\alloc_traits.h **** 
 309:c:\program files (x86)\arm gnu toolchain arm-none-eabi\12.2 rel1\arm-none-eabi\include\c++\12.2.1\bits\alloc_traits.h ****       /**
 310:c:\program files (x86)\arm gnu toolchain arm-none-eabi\12.2 rel1\arm-none-eabi\include\c++\12.2.1\bits\alloc_traits.h ****        *  @brief  Allocate memory.
 311:c:\program files (x86)\arm gnu toolchain arm-none-eabi\12.2 rel1\arm-none-eabi\include\c++\12.2.1\bits\alloc_traits.h ****        *  @param  __a  An allocator.
 312:c:\program files (x86)\arm gnu toolchain arm-none-eabi\12.2 rel1\arm-none-eabi\include\c++\12.2.1\bits\alloc_traits.h ****        *  @param  __n  The number of objects to allocate space for.
ARM GAS  C:\Users\wyx12\AppData\Local\Temp\ccLiZMYq.s 			page 23


 313:c:\program files (x86)\arm gnu toolchain arm-none-eabi\12.2 rel1\arm-none-eabi\include\c++\12.2.1\bits\alloc_traits.h ****        *
 314:c:\program files (x86)\arm gnu toolchain arm-none-eabi\12.2 rel1\arm-none-eabi\include\c++\12.2.1\bits\alloc_traits.h ****        *  Calls @c a.allocate(n)
 315:c:\program files (x86)\arm gnu toolchain arm-none-eabi\12.2 rel1\arm-none-eabi\include\c++\12.2.1\bits\alloc_traits.h ****       */
 316:c:\program files (x86)\arm gnu toolchain arm-none-eabi\12.2 rel1\arm-none-eabi\include\c++\12.2.1\bits\alloc_traits.h ****       _GLIBCXX_NODISCARD static _GLIBCXX20_CONSTEXPR pointer
 317:c:\program files (x86)\arm gnu toolchain arm-none-eabi\12.2 rel1\arm-none-eabi\include\c++\12.2.1\bits\alloc_traits.h ****       allocate(_Alloc& __a, size_type __n)
 318:c:\program files (x86)\arm gnu toolchain arm-none-eabi\12.2 rel1\arm-none-eabi\include\c++\12.2.1\bits\alloc_traits.h ****       { return __a.allocate(__n); }
 319:c:\program files (x86)\arm gnu toolchain arm-none-eabi\12.2 rel1\arm-none-eabi\include\c++\12.2.1\bits\alloc_traits.h **** 
 320:c:\program files (x86)\arm gnu toolchain arm-none-eabi\12.2 rel1\arm-none-eabi\include\c++\12.2.1\bits\alloc_traits.h ****       /**
 321:c:\program files (x86)\arm gnu toolchain arm-none-eabi\12.2 rel1\arm-none-eabi\include\c++\12.2.1\bits\alloc_traits.h ****        *  @brief  Allocate memory.
 322:c:\program files (x86)\arm gnu toolchain arm-none-eabi\12.2 rel1\arm-none-eabi\include\c++\12.2.1\bits\alloc_traits.h ****        *  @param  __a  An allocator.
 323:c:\program files (x86)\arm gnu toolchain arm-none-eabi\12.2 rel1\arm-none-eabi\include\c++\12.2.1\bits\alloc_traits.h ****        *  @param  __n  The number of objects to allocate space for.
 324:c:\program files (x86)\arm gnu toolchain arm-none-eabi\12.2 rel1\arm-none-eabi\include\c++\12.2.1\bits\alloc_traits.h ****        *  @param  __hint Aid to locality.
 325:c:\program files (x86)\arm gnu toolchain arm-none-eabi\12.2 rel1\arm-none-eabi\include\c++\12.2.1\bits\alloc_traits.h ****        *  @return Memory of suitable size and alignment for @a n objects
 326:c:\program files (x86)\arm gnu toolchain arm-none-eabi\12.2 rel1\arm-none-eabi\include\c++\12.2.1\bits\alloc_traits.h ****        *          of type @c value_type
 327:c:\program files (x86)\arm gnu toolchain arm-none-eabi\12.2 rel1\arm-none-eabi\include\c++\12.2.1\bits\alloc_traits.h ****        *
 328:c:\program files (x86)\arm gnu toolchain arm-none-eabi\12.2 rel1\arm-none-eabi\include\c++\12.2.1\bits\alloc_traits.h ****        *  Returns <tt> a.allocate(n, hint) </tt> if that expression is
 329:c:\program files (x86)\arm gnu toolchain arm-none-eabi\12.2 rel1\arm-none-eabi\include\c++\12.2.1\bits\alloc_traits.h ****        *  well-formed, otherwise returns @c a.allocate(n)
 330:c:\program files (x86)\arm gnu toolchain arm-none-eabi\12.2 rel1\arm-none-eabi\include\c++\12.2.1\bits\alloc_traits.h ****       */
 331:c:\program files (x86)\arm gnu toolchain arm-none-eabi\12.2 rel1\arm-none-eabi\include\c++\12.2.1\bits\alloc_traits.h ****       _GLIBCXX_NODISCARD static _GLIBCXX20_CONSTEXPR pointer
 332:c:\program files (x86)\arm gnu toolchain arm-none-eabi\12.2 rel1\arm-none-eabi\include\c++\12.2.1\bits\alloc_traits.h ****       allocate(_Alloc& __a, size_type __n, const_void_pointer __hint)
 333:c:\program files (x86)\arm gnu toolchain arm-none-eabi\12.2 rel1\arm-none-eabi\include\c++\12.2.1\bits\alloc_traits.h ****       { return _S_allocate(__a, __n, __hint, 0); }
 334:c:\program files (x86)\arm gnu toolchain arm-none-eabi\12.2 rel1\arm-none-eabi\include\c++\12.2.1\bits\alloc_traits.h **** 
 335:c:\program files (x86)\arm gnu toolchain arm-none-eabi\12.2 rel1\arm-none-eabi\include\c++\12.2.1\bits\alloc_traits.h ****       /**
 336:c:\program files (x86)\arm gnu toolchain arm-none-eabi\12.2 rel1\arm-none-eabi\include\c++\12.2.1\bits\alloc_traits.h ****        *  @brief  Deallocate memory.
 337:c:\program files (x86)\arm gnu toolchain arm-none-eabi\12.2 rel1\arm-none-eabi\include\c++\12.2.1\bits\alloc_traits.h ****        *  @param  __a  An allocator.
 338:c:\program files (x86)\arm gnu toolchain arm-none-eabi\12.2 rel1\arm-none-eabi\include\c++\12.2.1\bits\alloc_traits.h ****        *  @param  __p  Pointer to the memory to deallocate.
 339:c:\program files (x86)\arm gnu toolchain arm-none-eabi\12.2 rel1\arm-none-eabi\include\c++\12.2.1\bits\alloc_traits.h ****        *  @param  __n  The number of objects space was allocated for.
 340:c:\program files (x86)\arm gnu toolchain arm-none-eabi\12.2 rel1\arm-none-eabi\include\c++\12.2.1\bits\alloc_traits.h ****        *
 341:c:\program files (x86)\arm gnu toolchain arm-none-eabi\12.2 rel1\arm-none-eabi\include\c++\12.2.1\bits\alloc_traits.h ****        *  Calls <tt> a.deallocate(p, n) </tt>
 342:c:\program files (x86)\arm gnu toolchain arm-none-eabi\12.2 rel1\arm-none-eabi\include\c++\12.2.1\bits\alloc_traits.h ****       */
 343:c:\program files (x86)\arm gnu toolchain arm-none-eabi\12.2 rel1\arm-none-eabi\include\c++\12.2.1\bits\alloc_traits.h ****       static _GLIBCXX20_CONSTEXPR void
 344:c:\program files (x86)\arm gnu toolchain arm-none-eabi\12.2 rel1\arm-none-eabi\include\c++\12.2.1\bits\alloc_traits.h ****       deallocate(_Alloc& __a, pointer __p, size_type __n)
 345:c:\program files (x86)\arm gnu toolchain arm-none-eabi\12.2 rel1\arm-none-eabi\include\c++\12.2.1\bits\alloc_traits.h ****       { __a.deallocate(__p, __n); }
 346:c:\program files (x86)\arm gnu toolchain arm-none-eabi\12.2 rel1\arm-none-eabi\include\c++\12.2.1\bits\alloc_traits.h **** 
 347:c:\program files (x86)\arm gnu toolchain arm-none-eabi\12.2 rel1\arm-none-eabi\include\c++\12.2.1\bits\alloc_traits.h ****       /**
 348:c:\program files (x86)\arm gnu toolchain arm-none-eabi\12.2 rel1\arm-none-eabi\include\c++\12.2.1\bits\alloc_traits.h ****        *  @brief  Construct an object of type `_Tp`
 349:c:\program files (x86)\arm gnu toolchain arm-none-eabi\12.2 rel1\arm-none-eabi\include\c++\12.2.1\bits\alloc_traits.h ****        *  @param  __a  An allocator.
 350:c:\program files (x86)\arm gnu toolchain arm-none-eabi\12.2 rel1\arm-none-eabi\include\c++\12.2.1\bits\alloc_traits.h ****        *  @param  __p  Pointer to memory of suitable size and alignment for Tp
 351:c:\program files (x86)\arm gnu toolchain arm-none-eabi\12.2 rel1\arm-none-eabi\include\c++\12.2.1\bits\alloc_traits.h ****        *  @param  __args Constructor arguments.
 352:c:\program files (x86)\arm gnu toolchain arm-none-eabi\12.2 rel1\arm-none-eabi\include\c++\12.2.1\bits\alloc_traits.h ****        *
 353:c:\program files (x86)\arm gnu toolchain arm-none-eabi\12.2 rel1\arm-none-eabi\include\c++\12.2.1\bits\alloc_traits.h ****        *  Calls <tt> __a.construct(__p, std::forward<Args>(__args)...) </tt>
 354:c:\program files (x86)\arm gnu toolchain arm-none-eabi\12.2 rel1\arm-none-eabi\include\c++\12.2.1\bits\alloc_traits.h ****        *  if that expression is well-formed, otherwise uses placement-new
 355:c:\program files (x86)\arm gnu toolchain arm-none-eabi\12.2 rel1\arm-none-eabi\include\c++\12.2.1\bits\alloc_traits.h ****        *  to construct an object of type @a _Tp at location @a __p from the
 356:c:\program files (x86)\arm gnu toolchain arm-none-eabi\12.2 rel1\arm-none-eabi\include\c++\12.2.1\bits\alloc_traits.h ****        *  arguments @a __args...
 357:c:\program files (x86)\arm gnu toolchain arm-none-eabi\12.2 rel1\arm-none-eabi\include\c++\12.2.1\bits\alloc_traits.h ****       */
 358:c:\program files (x86)\arm gnu toolchain arm-none-eabi\12.2 rel1\arm-none-eabi\include\c++\12.2.1\bits\alloc_traits.h ****       template<typename _Tp, typename... _Args>
 359:c:\program files (x86)\arm gnu toolchain arm-none-eabi\12.2 rel1\arm-none-eabi\include\c++\12.2.1\bits\alloc_traits.h **** 	static _GLIBCXX20_CONSTEXPR auto
 360:c:\program files (x86)\arm gnu toolchain arm-none-eabi\12.2 rel1\arm-none-eabi\include\c++\12.2.1\bits\alloc_traits.h **** 	construct(_Alloc& __a, _Tp* __p, _Args&&... __args)
 361:c:\program files (x86)\arm gnu toolchain arm-none-eabi\12.2 rel1\arm-none-eabi\include\c++\12.2.1\bits\alloc_traits.h **** 	noexcept(noexcept(_S_construct(__a, __p,
 362:c:\program files (x86)\arm gnu toolchain arm-none-eabi\12.2 rel1\arm-none-eabi\include\c++\12.2.1\bits\alloc_traits.h **** 				       std::forward<_Args>(__args)...)))
 363:c:\program files (x86)\arm gnu toolchain arm-none-eabi\12.2 rel1\arm-none-eabi\include\c++\12.2.1\bits\alloc_traits.h **** 	-> decltype(_S_construct(__a, __p, std::forward<_Args>(__args)...))
 364:c:\program files (x86)\arm gnu toolchain arm-none-eabi\12.2 rel1\arm-none-eabi\include\c++\12.2.1\bits\alloc_traits.h **** 	{ _S_construct(__a, __p, std::forward<_Args>(__args)...); }
 365:c:\program files (x86)\arm gnu toolchain arm-none-eabi\12.2 rel1\arm-none-eabi\include\c++\12.2.1\bits\alloc_traits.h **** 
 366:c:\program files (x86)\arm gnu toolchain arm-none-eabi\12.2 rel1\arm-none-eabi\include\c++\12.2.1\bits\alloc_traits.h ****       /**
 367:c:\program files (x86)\arm gnu toolchain arm-none-eabi\12.2 rel1\arm-none-eabi\include\c++\12.2.1\bits\alloc_traits.h ****        *  @brief  Destroy an object of type @a _Tp
 368:c:\program files (x86)\arm gnu toolchain arm-none-eabi\12.2 rel1\arm-none-eabi\include\c++\12.2.1\bits\alloc_traits.h ****        *  @param  __a  An allocator.
 369:c:\program files (x86)\arm gnu toolchain arm-none-eabi\12.2 rel1\arm-none-eabi\include\c++\12.2.1\bits\alloc_traits.h ****        *  @param  __p  Pointer to the object to destroy
ARM GAS  C:\Users\wyx12\AppData\Local\Temp\ccLiZMYq.s 			page 24


 370:c:\program files (x86)\arm gnu toolchain arm-none-eabi\12.2 rel1\arm-none-eabi\include\c++\12.2.1\bits\alloc_traits.h ****        *
 371:c:\program files (x86)\arm gnu toolchain arm-none-eabi\12.2 rel1\arm-none-eabi\include\c++\12.2.1\bits\alloc_traits.h ****        *  Calls @c __a.destroy(__p) if that expression is well-formed,
 372:c:\program files (x86)\arm gnu toolchain arm-none-eabi\12.2 rel1\arm-none-eabi\include\c++\12.2.1\bits\alloc_traits.h ****        *  otherwise calls @c __p->~_Tp()
 373:c:\program files (x86)\arm gnu toolchain arm-none-eabi\12.2 rel1\arm-none-eabi\include\c++\12.2.1\bits\alloc_traits.h ****       */
 374:c:\program files (x86)\arm gnu toolchain arm-none-eabi\12.2 rel1\arm-none-eabi\include\c++\12.2.1\bits\alloc_traits.h ****       template<typename _Tp>
 375:c:\program files (x86)\arm gnu toolchain arm-none-eabi\12.2 rel1\arm-none-eabi\include\c++\12.2.1\bits\alloc_traits.h **** 	static _GLIBCXX20_CONSTEXPR void
 376:c:\program files (x86)\arm gnu toolchain arm-none-eabi\12.2 rel1\arm-none-eabi\include\c++\12.2.1\bits\alloc_traits.h **** 	destroy(_Alloc& __a, _Tp* __p)
 377:c:\program files (x86)\arm gnu toolchain arm-none-eabi\12.2 rel1\arm-none-eabi\include\c++\12.2.1\bits\alloc_traits.h **** 	noexcept(noexcept(_S_destroy(__a, __p, 0)))
 378:c:\program files (x86)\arm gnu toolchain arm-none-eabi\12.2 rel1\arm-none-eabi\include\c++\12.2.1\bits\alloc_traits.h **** 	{ _S_destroy(__a, __p, 0); }
 379:c:\program files (x86)\arm gnu toolchain arm-none-eabi\12.2 rel1\arm-none-eabi\include\c++\12.2.1\bits\alloc_traits.h **** 
 380:c:\program files (x86)\arm gnu toolchain arm-none-eabi\12.2 rel1\arm-none-eabi\include\c++\12.2.1\bits\alloc_traits.h ****       /**
 381:c:\program files (x86)\arm gnu toolchain arm-none-eabi\12.2 rel1\arm-none-eabi\include\c++\12.2.1\bits\alloc_traits.h ****        *  @brief  The maximum supported allocation size
 382:c:\program files (x86)\arm gnu toolchain arm-none-eabi\12.2 rel1\arm-none-eabi\include\c++\12.2.1\bits\alloc_traits.h ****        *  @param  __a  An allocator.
 383:c:\program files (x86)\arm gnu toolchain arm-none-eabi\12.2 rel1\arm-none-eabi\include\c++\12.2.1\bits\alloc_traits.h ****        *  @return @c __a.max_size() or @c numeric_limits<size_type>::max()
 384:c:\program files (x86)\arm gnu toolchain arm-none-eabi\12.2 rel1\arm-none-eabi\include\c++\12.2.1\bits\alloc_traits.h ****        *
 385:c:\program files (x86)\arm gnu toolchain arm-none-eabi\12.2 rel1\arm-none-eabi\include\c++\12.2.1\bits\alloc_traits.h ****        *  Returns @c __a.max_size() if that expression is well-formed,
 386:c:\program files (x86)\arm gnu toolchain arm-none-eabi\12.2 rel1\arm-none-eabi\include\c++\12.2.1\bits\alloc_traits.h ****        *  otherwise returns @c numeric_limits<size_type>::max()
 387:c:\program files (x86)\arm gnu toolchain arm-none-eabi\12.2 rel1\arm-none-eabi\include\c++\12.2.1\bits\alloc_traits.h ****       */
 388:c:\program files (x86)\arm gnu toolchain arm-none-eabi\12.2 rel1\arm-none-eabi\include\c++\12.2.1\bits\alloc_traits.h ****       static _GLIBCXX20_CONSTEXPR size_type
 389:c:\program files (x86)\arm gnu toolchain arm-none-eabi\12.2 rel1\arm-none-eabi\include\c++\12.2.1\bits\alloc_traits.h ****       max_size(const _Alloc& __a) noexcept
 390:c:\program files (x86)\arm gnu toolchain arm-none-eabi\12.2 rel1\arm-none-eabi\include\c++\12.2.1\bits\alloc_traits.h ****       { return _S_max_size(__a, 0); }
 391:c:\program files (x86)\arm gnu toolchain arm-none-eabi\12.2 rel1\arm-none-eabi\include\c++\12.2.1\bits\alloc_traits.h **** 
 392:c:\program files (x86)\arm gnu toolchain arm-none-eabi\12.2 rel1\arm-none-eabi\include\c++\12.2.1\bits\alloc_traits.h ****       /**
 393:c:\program files (x86)\arm gnu toolchain arm-none-eabi\12.2 rel1\arm-none-eabi\include\c++\12.2.1\bits\alloc_traits.h ****        *  @brief  Obtain an allocator to use when copying a container.
 394:c:\program files (x86)\arm gnu toolchain arm-none-eabi\12.2 rel1\arm-none-eabi\include\c++\12.2.1\bits\alloc_traits.h ****        *  @param  __rhs  An allocator.
 395:c:\program files (x86)\arm gnu toolchain arm-none-eabi\12.2 rel1\arm-none-eabi\include\c++\12.2.1\bits\alloc_traits.h ****        *  @return @c __rhs.select_on_container_copy_construction() or @a __rhs
 396:c:\program files (x86)\arm gnu toolchain arm-none-eabi\12.2 rel1\arm-none-eabi\include\c++\12.2.1\bits\alloc_traits.h ****        *
 397:c:\program files (x86)\arm gnu toolchain arm-none-eabi\12.2 rel1\arm-none-eabi\include\c++\12.2.1\bits\alloc_traits.h ****        *  Returns @c __rhs.select_on_container_copy_construction() if that
 398:c:\program files (x86)\arm gnu toolchain arm-none-eabi\12.2 rel1\arm-none-eabi\include\c++\12.2.1\bits\alloc_traits.h ****        *  expression is well-formed, otherwise returns @a __rhs
 399:c:\program files (x86)\arm gnu toolchain arm-none-eabi\12.2 rel1\arm-none-eabi\include\c++\12.2.1\bits\alloc_traits.h ****       */
 400:c:\program files (x86)\arm gnu toolchain arm-none-eabi\12.2 rel1\arm-none-eabi\include\c++\12.2.1\bits\alloc_traits.h ****       static _GLIBCXX20_CONSTEXPR _Alloc
 401:c:\program files (x86)\arm gnu toolchain arm-none-eabi\12.2 rel1\arm-none-eabi\include\c++\12.2.1\bits\alloc_traits.h ****       select_on_container_copy_construction(const _Alloc& __rhs)
 402:c:\program files (x86)\arm gnu toolchain arm-none-eabi\12.2 rel1\arm-none-eabi\include\c++\12.2.1\bits\alloc_traits.h ****       { return _S_select(__rhs, 0); }
 403:c:\program files (x86)\arm gnu toolchain arm-none-eabi\12.2 rel1\arm-none-eabi\include\c++\12.2.1\bits\alloc_traits.h ****     };
 404:c:\program files (x86)\arm gnu toolchain arm-none-eabi\12.2 rel1\arm-none-eabi\include\c++\12.2.1\bits\alloc_traits.h **** 
 405:c:\program files (x86)\arm gnu toolchain arm-none-eabi\12.2 rel1\arm-none-eabi\include\c++\12.2.1\bits\alloc_traits.h **** #if __cplusplus > 201703L
 406:c:\program files (x86)\arm gnu toolchain arm-none-eabi\12.2 rel1\arm-none-eabi\include\c++\12.2.1\bits\alloc_traits.h **** # define __cpp_lib_constexpr_dynamic_alloc 201907L
 407:c:\program files (x86)\arm gnu toolchain arm-none-eabi\12.2 rel1\arm-none-eabi\include\c++\12.2.1\bits\alloc_traits.h **** #endif
 408:c:\program files (x86)\arm gnu toolchain arm-none-eabi\12.2 rel1\arm-none-eabi\include\c++\12.2.1\bits\alloc_traits.h **** 
 409:c:\program files (x86)\arm gnu toolchain arm-none-eabi\12.2 rel1\arm-none-eabi\include\c++\12.2.1\bits\alloc_traits.h ****   /// Partial specialization for std::allocator.
 410:c:\program files (x86)\arm gnu toolchain arm-none-eabi\12.2 rel1\arm-none-eabi\include\c++\12.2.1\bits\alloc_traits.h ****   template<typename _Tp>
 411:c:\program files (x86)\arm gnu toolchain arm-none-eabi\12.2 rel1\arm-none-eabi\include\c++\12.2.1\bits\alloc_traits.h ****     struct allocator_traits<allocator<_Tp>>
 412:c:\program files (x86)\arm gnu toolchain arm-none-eabi\12.2 rel1\arm-none-eabi\include\c++\12.2.1\bits\alloc_traits.h ****     {
 413:c:\program files (x86)\arm gnu toolchain arm-none-eabi\12.2 rel1\arm-none-eabi\include\c++\12.2.1\bits\alloc_traits.h ****       /// The allocator type
 414:c:\program files (x86)\arm gnu toolchain arm-none-eabi\12.2 rel1\arm-none-eabi\include\c++\12.2.1\bits\alloc_traits.h ****       using allocator_type = allocator<_Tp>;
 415:c:\program files (x86)\arm gnu toolchain arm-none-eabi\12.2 rel1\arm-none-eabi\include\c++\12.2.1\bits\alloc_traits.h **** 
 416:c:\program files (x86)\arm gnu toolchain arm-none-eabi\12.2 rel1\arm-none-eabi\include\c++\12.2.1\bits\alloc_traits.h ****       /// The allocated type
 417:c:\program files (x86)\arm gnu toolchain arm-none-eabi\12.2 rel1\arm-none-eabi\include\c++\12.2.1\bits\alloc_traits.h ****       using value_type = _Tp;
 418:c:\program files (x86)\arm gnu toolchain arm-none-eabi\12.2 rel1\arm-none-eabi\include\c++\12.2.1\bits\alloc_traits.h **** 
 419:c:\program files (x86)\arm gnu toolchain arm-none-eabi\12.2 rel1\arm-none-eabi\include\c++\12.2.1\bits\alloc_traits.h ****       /// The allocator's pointer type.
 420:c:\program files (x86)\arm gnu toolchain arm-none-eabi\12.2 rel1\arm-none-eabi\include\c++\12.2.1\bits\alloc_traits.h ****       using pointer = _Tp*;
 421:c:\program files (x86)\arm gnu toolchain arm-none-eabi\12.2 rel1\arm-none-eabi\include\c++\12.2.1\bits\alloc_traits.h **** 
 422:c:\program files (x86)\arm gnu toolchain arm-none-eabi\12.2 rel1\arm-none-eabi\include\c++\12.2.1\bits\alloc_traits.h ****       /// The allocator's const pointer type.
 423:c:\program files (x86)\arm gnu toolchain arm-none-eabi\12.2 rel1\arm-none-eabi\include\c++\12.2.1\bits\alloc_traits.h ****       using const_pointer = const _Tp*;
 424:c:\program files (x86)\arm gnu toolchain arm-none-eabi\12.2 rel1\arm-none-eabi\include\c++\12.2.1\bits\alloc_traits.h **** 
 425:c:\program files (x86)\arm gnu toolchain arm-none-eabi\12.2 rel1\arm-none-eabi\include\c++\12.2.1\bits\alloc_traits.h ****       /// The allocator's void pointer type.
 426:c:\program files (x86)\arm gnu toolchain arm-none-eabi\12.2 rel1\arm-none-eabi\include\c++\12.2.1\bits\alloc_traits.h ****       using void_pointer = void*;
ARM GAS  C:\Users\wyx12\AppData\Local\Temp\ccLiZMYq.s 			page 25


 427:c:\program files (x86)\arm gnu toolchain arm-none-eabi\12.2 rel1\arm-none-eabi\include\c++\12.2.1\bits\alloc_traits.h **** 
 428:c:\program files (x86)\arm gnu toolchain arm-none-eabi\12.2 rel1\arm-none-eabi\include\c++\12.2.1\bits\alloc_traits.h ****       /// The allocator's const void pointer type.
 429:c:\program files (x86)\arm gnu toolchain arm-none-eabi\12.2 rel1\arm-none-eabi\include\c++\12.2.1\bits\alloc_traits.h ****       using const_void_pointer = const void*;
 430:c:\program files (x86)\arm gnu toolchain arm-none-eabi\12.2 rel1\arm-none-eabi\include\c++\12.2.1\bits\alloc_traits.h **** 
 431:c:\program files (x86)\arm gnu toolchain arm-none-eabi\12.2 rel1\arm-none-eabi\include\c++\12.2.1\bits\alloc_traits.h ****       /// The allocator's difference type
 432:c:\program files (x86)\arm gnu toolchain arm-none-eabi\12.2 rel1\arm-none-eabi\include\c++\12.2.1\bits\alloc_traits.h ****       using difference_type = std::ptrdiff_t;
 433:c:\program files (x86)\arm gnu toolchain arm-none-eabi\12.2 rel1\arm-none-eabi\include\c++\12.2.1\bits\alloc_traits.h **** 
 434:c:\program files (x86)\arm gnu toolchain arm-none-eabi\12.2 rel1\arm-none-eabi\include\c++\12.2.1\bits\alloc_traits.h ****       /// The allocator's size type
 435:c:\program files (x86)\arm gnu toolchain arm-none-eabi\12.2 rel1\arm-none-eabi\include\c++\12.2.1\bits\alloc_traits.h ****       using size_type = std::size_t;
 436:c:\program files (x86)\arm gnu toolchain arm-none-eabi\12.2 rel1\arm-none-eabi\include\c++\12.2.1\bits\alloc_traits.h **** 
 437:c:\program files (x86)\arm gnu toolchain arm-none-eabi\12.2 rel1\arm-none-eabi\include\c++\12.2.1\bits\alloc_traits.h ****       /// How the allocator is propagated on copy assignment
 438:c:\program files (x86)\arm gnu toolchain arm-none-eabi\12.2 rel1\arm-none-eabi\include\c++\12.2.1\bits\alloc_traits.h ****       using propagate_on_container_copy_assignment = false_type;
 439:c:\program files (x86)\arm gnu toolchain arm-none-eabi\12.2 rel1\arm-none-eabi\include\c++\12.2.1\bits\alloc_traits.h **** 
 440:c:\program files (x86)\arm gnu toolchain arm-none-eabi\12.2 rel1\arm-none-eabi\include\c++\12.2.1\bits\alloc_traits.h ****       /// How the allocator is propagated on move assignment
 441:c:\program files (x86)\arm gnu toolchain arm-none-eabi\12.2 rel1\arm-none-eabi\include\c++\12.2.1\bits\alloc_traits.h ****       using propagate_on_container_move_assignment = true_type;
 442:c:\program files (x86)\arm gnu toolchain arm-none-eabi\12.2 rel1\arm-none-eabi\include\c++\12.2.1\bits\alloc_traits.h **** 
 443:c:\program files (x86)\arm gnu toolchain arm-none-eabi\12.2 rel1\arm-none-eabi\include\c++\12.2.1\bits\alloc_traits.h ****       /// How the allocator is propagated on swap
 444:c:\program files (x86)\arm gnu toolchain arm-none-eabi\12.2 rel1\arm-none-eabi\include\c++\12.2.1\bits\alloc_traits.h ****       using propagate_on_container_swap = false_type;
 445:c:\program files (x86)\arm gnu toolchain arm-none-eabi\12.2 rel1\arm-none-eabi\include\c++\12.2.1\bits\alloc_traits.h **** 
 446:c:\program files (x86)\arm gnu toolchain arm-none-eabi\12.2 rel1\arm-none-eabi\include\c++\12.2.1\bits\alloc_traits.h ****       /// Whether all instances of the allocator type compare equal.
 447:c:\program files (x86)\arm gnu toolchain arm-none-eabi\12.2 rel1\arm-none-eabi\include\c++\12.2.1\bits\alloc_traits.h ****       using is_always_equal = true_type;
 448:c:\program files (x86)\arm gnu toolchain arm-none-eabi\12.2 rel1\arm-none-eabi\include\c++\12.2.1\bits\alloc_traits.h **** 
 449:c:\program files (x86)\arm gnu toolchain arm-none-eabi\12.2 rel1\arm-none-eabi\include\c++\12.2.1\bits\alloc_traits.h ****       template<typename _Up>
 450:c:\program files (x86)\arm gnu toolchain arm-none-eabi\12.2 rel1\arm-none-eabi\include\c++\12.2.1\bits\alloc_traits.h **** 	using rebind_alloc = allocator<_Up>;
 451:c:\program files (x86)\arm gnu toolchain arm-none-eabi\12.2 rel1\arm-none-eabi\include\c++\12.2.1\bits\alloc_traits.h **** 
 452:c:\program files (x86)\arm gnu toolchain arm-none-eabi\12.2 rel1\arm-none-eabi\include\c++\12.2.1\bits\alloc_traits.h ****       template<typename _Up>
 453:c:\program files (x86)\arm gnu toolchain arm-none-eabi\12.2 rel1\arm-none-eabi\include\c++\12.2.1\bits\alloc_traits.h **** 	using rebind_traits = allocator_traits<allocator<_Up>>;
 454:c:\program files (x86)\arm gnu toolchain arm-none-eabi\12.2 rel1\arm-none-eabi\include\c++\12.2.1\bits\alloc_traits.h **** 
 455:c:\program files (x86)\arm gnu toolchain arm-none-eabi\12.2 rel1\arm-none-eabi\include\c++\12.2.1\bits\alloc_traits.h ****       /**
 456:c:\program files (x86)\arm gnu toolchain arm-none-eabi\12.2 rel1\arm-none-eabi\include\c++\12.2.1\bits\alloc_traits.h ****        *  @brief  Allocate memory.
 457:c:\program files (x86)\arm gnu toolchain arm-none-eabi\12.2 rel1\arm-none-eabi\include\c++\12.2.1\bits\alloc_traits.h ****        *  @param  __a  An allocator.
 458:c:\program files (x86)\arm gnu toolchain arm-none-eabi\12.2 rel1\arm-none-eabi\include\c++\12.2.1\bits\alloc_traits.h ****        *  @param  __n  The number of objects to allocate space for.
 459:c:\program files (x86)\arm gnu toolchain arm-none-eabi\12.2 rel1\arm-none-eabi\include\c++\12.2.1\bits\alloc_traits.h ****        *
 460:c:\program files (x86)\arm gnu toolchain arm-none-eabi\12.2 rel1\arm-none-eabi\include\c++\12.2.1\bits\alloc_traits.h ****        *  Calls @c a.allocate(n)
 461:c:\program files (x86)\arm gnu toolchain arm-none-eabi\12.2 rel1\arm-none-eabi\include\c++\12.2.1\bits\alloc_traits.h ****       */
 462:c:\program files (x86)\arm gnu toolchain arm-none-eabi\12.2 rel1\arm-none-eabi\include\c++\12.2.1\bits\alloc_traits.h ****       _GLIBCXX_NODISCARD static _GLIBCXX20_CONSTEXPR pointer
 463:c:\program files (x86)\arm gnu toolchain arm-none-eabi\12.2 rel1\arm-none-eabi\include\c++\12.2.1\bits\alloc_traits.h ****       allocate(allocator_type& __a, size_type __n)
 464:c:\program files (x86)\arm gnu toolchain arm-none-eabi\12.2 rel1\arm-none-eabi\include\c++\12.2.1\bits\alloc_traits.h ****       { return __a.allocate(__n); }
 465:c:\program files (x86)\arm gnu toolchain arm-none-eabi\12.2 rel1\arm-none-eabi\include\c++\12.2.1\bits\alloc_traits.h **** 
 466:c:\program files (x86)\arm gnu toolchain arm-none-eabi\12.2 rel1\arm-none-eabi\include\c++\12.2.1\bits\alloc_traits.h ****       /**
 467:c:\program files (x86)\arm gnu toolchain arm-none-eabi\12.2 rel1\arm-none-eabi\include\c++\12.2.1\bits\alloc_traits.h ****        *  @brief  Allocate memory.
 468:c:\program files (x86)\arm gnu toolchain arm-none-eabi\12.2 rel1\arm-none-eabi\include\c++\12.2.1\bits\alloc_traits.h ****        *  @param  __a  An allocator.
 469:c:\program files (x86)\arm gnu toolchain arm-none-eabi\12.2 rel1\arm-none-eabi\include\c++\12.2.1\bits\alloc_traits.h ****        *  @param  __n  The number of objects to allocate space for.
 470:c:\program files (x86)\arm gnu toolchain arm-none-eabi\12.2 rel1\arm-none-eabi\include\c++\12.2.1\bits\alloc_traits.h ****        *  @param  __hint Aid to locality.
 471:c:\program files (x86)\arm gnu toolchain arm-none-eabi\12.2 rel1\arm-none-eabi\include\c++\12.2.1\bits\alloc_traits.h ****        *  @return Memory of suitable size and alignment for @a n objects
 472:c:\program files (x86)\arm gnu toolchain arm-none-eabi\12.2 rel1\arm-none-eabi\include\c++\12.2.1\bits\alloc_traits.h ****        *          of type @c value_type
 473:c:\program files (x86)\arm gnu toolchain arm-none-eabi\12.2 rel1\arm-none-eabi\include\c++\12.2.1\bits\alloc_traits.h ****        *
 474:c:\program files (x86)\arm gnu toolchain arm-none-eabi\12.2 rel1\arm-none-eabi\include\c++\12.2.1\bits\alloc_traits.h ****        *  Returns <tt> a.allocate(n, hint) </tt>
 475:c:\program files (x86)\arm gnu toolchain arm-none-eabi\12.2 rel1\arm-none-eabi\include\c++\12.2.1\bits\alloc_traits.h ****       */
 476:c:\program files (x86)\arm gnu toolchain arm-none-eabi\12.2 rel1\arm-none-eabi\include\c++\12.2.1\bits\alloc_traits.h ****       _GLIBCXX_NODISCARD static _GLIBCXX20_CONSTEXPR pointer
 477:c:\program files (x86)\arm gnu toolchain arm-none-eabi\12.2 rel1\arm-none-eabi\include\c++\12.2.1\bits\alloc_traits.h ****       allocate(allocator_type& __a, size_type __n, const_void_pointer __hint)
 478:c:\program files (x86)\arm gnu toolchain arm-none-eabi\12.2 rel1\arm-none-eabi\include\c++\12.2.1\bits\alloc_traits.h ****       {
 479:c:\program files (x86)\arm gnu toolchain arm-none-eabi\12.2 rel1\arm-none-eabi\include\c++\12.2.1\bits\alloc_traits.h **** #if __cplusplus <= 201703L
 480:c:\program files (x86)\arm gnu toolchain arm-none-eabi\12.2 rel1\arm-none-eabi\include\c++\12.2.1\bits\alloc_traits.h **** 	return __a.allocate(__n, __hint);
 481:c:\program files (x86)\arm gnu toolchain arm-none-eabi\12.2 rel1\arm-none-eabi\include\c++\12.2.1\bits\alloc_traits.h **** #else
 482:c:\program files (x86)\arm gnu toolchain arm-none-eabi\12.2 rel1\arm-none-eabi\include\c++\12.2.1\bits\alloc_traits.h **** 	return __a.allocate(__n);
 483:c:\program files (x86)\arm gnu toolchain arm-none-eabi\12.2 rel1\arm-none-eabi\include\c++\12.2.1\bits\alloc_traits.h **** #endif
ARM GAS  C:\Users\wyx12\AppData\Local\Temp\ccLiZMYq.s 			page 26


 484:c:\program files (x86)\arm gnu toolchain arm-none-eabi\12.2 rel1\arm-none-eabi\include\c++\12.2.1\bits\alloc_traits.h ****       }
 485:c:\program files (x86)\arm gnu toolchain arm-none-eabi\12.2 rel1\arm-none-eabi\include\c++\12.2.1\bits\alloc_traits.h **** 
 486:c:\program files (x86)\arm gnu toolchain arm-none-eabi\12.2 rel1\arm-none-eabi\include\c++\12.2.1\bits\alloc_traits.h ****       /**
 487:c:\program files (x86)\arm gnu toolchain arm-none-eabi\12.2 rel1\arm-none-eabi\include\c++\12.2.1\bits\alloc_traits.h ****        *  @brief  Deallocate memory.
 488:c:\program files (x86)\arm gnu toolchain arm-none-eabi\12.2 rel1\arm-none-eabi\include\c++\12.2.1\bits\alloc_traits.h ****        *  @param  __a  An allocator.
 489:c:\program files (x86)\arm gnu toolchain arm-none-eabi\12.2 rel1\arm-none-eabi\include\c++\12.2.1\bits\alloc_traits.h ****        *  @param  __p  Pointer to the memory to deallocate.
 490:c:\program files (x86)\arm gnu toolchain arm-none-eabi\12.2 rel1\arm-none-eabi\include\c++\12.2.1\bits\alloc_traits.h ****        *  @param  __n  The number of objects space was allocated for.
 491:c:\program files (x86)\arm gnu toolchain arm-none-eabi\12.2 rel1\arm-none-eabi\include\c++\12.2.1\bits\alloc_traits.h ****        *
 492:c:\program files (x86)\arm gnu toolchain arm-none-eabi\12.2 rel1\arm-none-eabi\include\c++\12.2.1\bits\alloc_traits.h ****        *  Calls <tt> a.deallocate(p, n) </tt>
 493:c:\program files (x86)\arm gnu toolchain arm-none-eabi\12.2 rel1\arm-none-eabi\include\c++\12.2.1\bits\alloc_traits.h ****       */
 494:c:\program files (x86)\arm gnu toolchain arm-none-eabi\12.2 rel1\arm-none-eabi\include\c++\12.2.1\bits\alloc_traits.h ****       static _GLIBCXX20_CONSTEXPR void
 495:c:\program files (x86)\arm gnu toolchain arm-none-eabi\12.2 rel1\arm-none-eabi\include\c++\12.2.1\bits\alloc_traits.h ****       deallocate(allocator_type& __a, pointer __p, size_type __n)
 206              		.loc 4 495 7 is_stmt 1 view .LVU50
 207              	.LBB643:
 208              	.LBB644:
 209              	.LBI644:
 210              		.file 5 "c:\\program files (x86)\\arm gnu toolchain arm-none-eabi\\12.2 rel1\\arm-none-eabi\\inclu
   1:c:\program files (x86)\arm gnu toolchain arm-none-eabi\12.2 rel1\arm-none-eabi\include\c++\12.2.1\bits\new_allocator.h **** // Allocator that wraps operator new -*- C++ -*-
   2:c:\program files (x86)\arm gnu toolchain arm-none-eabi\12.2 rel1\arm-none-eabi\include\c++\12.2.1\bits\new_allocator.h **** 
   3:c:\program files (x86)\arm gnu toolchain arm-none-eabi\12.2 rel1\arm-none-eabi\include\c++\12.2.1\bits\new_allocator.h **** // Copyright (C) 2001-2022 Free Software Foundation, Inc.
   4:c:\program files (x86)\arm gnu toolchain arm-none-eabi\12.2 rel1\arm-none-eabi\include\c++\12.2.1\bits\new_allocator.h **** //
   5:c:\program files (x86)\arm gnu toolchain arm-none-eabi\12.2 rel1\arm-none-eabi\include\c++\12.2.1\bits\new_allocator.h **** // This file is part of the GNU ISO C++ Library.  This library is free
   6:c:\program files (x86)\arm gnu toolchain arm-none-eabi\12.2 rel1\arm-none-eabi\include\c++\12.2.1\bits\new_allocator.h **** // software; you can redistribute it and/or modify it under the
   7:c:\program files (x86)\arm gnu toolchain arm-none-eabi\12.2 rel1\arm-none-eabi\include\c++\12.2.1\bits\new_allocator.h **** // terms of the GNU General Public License as published by the
   8:c:\program files (x86)\arm gnu toolchain arm-none-eabi\12.2 rel1\arm-none-eabi\include\c++\12.2.1\bits\new_allocator.h **** // Free Software Foundation; either version 3, or (at your option)
   9:c:\program files (x86)\arm gnu toolchain arm-none-eabi\12.2 rel1\arm-none-eabi\include\c++\12.2.1\bits\new_allocator.h **** // any later version.
  10:c:\program files (x86)\arm gnu toolchain arm-none-eabi\12.2 rel1\arm-none-eabi\include\c++\12.2.1\bits\new_allocator.h **** 
  11:c:\program files (x86)\arm gnu toolchain arm-none-eabi\12.2 rel1\arm-none-eabi\include\c++\12.2.1\bits\new_allocator.h **** // This library is distributed in the hope that it will be useful,
  12:c:\program files (x86)\arm gnu toolchain arm-none-eabi\12.2 rel1\arm-none-eabi\include\c++\12.2.1\bits\new_allocator.h **** // but WITHOUT ANY WARRANTY; without even the implied warranty of
  13:c:\program files (x86)\arm gnu toolchain arm-none-eabi\12.2 rel1\arm-none-eabi\include\c++\12.2.1\bits\new_allocator.h **** // MERCHANTABILITY or FITNESS FOR A PARTICULAR PURPOSE.  See the
  14:c:\program files (x86)\arm gnu toolchain arm-none-eabi\12.2 rel1\arm-none-eabi\include\c++\12.2.1\bits\new_allocator.h **** // GNU General Public License for more details.
  15:c:\program files (x86)\arm gnu toolchain arm-none-eabi\12.2 rel1\arm-none-eabi\include\c++\12.2.1\bits\new_allocator.h **** 
  16:c:\program files (x86)\arm gnu toolchain arm-none-eabi\12.2 rel1\arm-none-eabi\include\c++\12.2.1\bits\new_allocator.h **** // Under Section 7 of GPL version 3, you are granted additional
  17:c:\program files (x86)\arm gnu toolchain arm-none-eabi\12.2 rel1\arm-none-eabi\include\c++\12.2.1\bits\new_allocator.h **** // permissions described in the GCC Runtime Library Exception, version
  18:c:\program files (x86)\arm gnu toolchain arm-none-eabi\12.2 rel1\arm-none-eabi\include\c++\12.2.1\bits\new_allocator.h **** // 3.1, as published by the Free Software Foundation.
  19:c:\program files (x86)\arm gnu toolchain arm-none-eabi\12.2 rel1\arm-none-eabi\include\c++\12.2.1\bits\new_allocator.h **** 
  20:c:\program files (x86)\arm gnu toolchain arm-none-eabi\12.2 rel1\arm-none-eabi\include\c++\12.2.1\bits\new_allocator.h **** // You should have received a copy of the GNU General Public License and
  21:c:\program files (x86)\arm gnu toolchain arm-none-eabi\12.2 rel1\arm-none-eabi\include\c++\12.2.1\bits\new_allocator.h **** // a copy of the GCC Runtime Library Exception along with this program;
  22:c:\program files (x86)\arm gnu toolchain arm-none-eabi\12.2 rel1\arm-none-eabi\include\c++\12.2.1\bits\new_allocator.h **** // see the files COPYING3 and COPYING.RUNTIME respectively.  If not, see
  23:c:\program files (x86)\arm gnu toolchain arm-none-eabi\12.2 rel1\arm-none-eabi\include\c++\12.2.1\bits\new_allocator.h **** // <http://www.gnu.org/licenses/>.
  24:c:\program files (x86)\arm gnu toolchain arm-none-eabi\12.2 rel1\arm-none-eabi\include\c++\12.2.1\bits\new_allocator.h **** 
  25:c:\program files (x86)\arm gnu toolchain arm-none-eabi\12.2 rel1\arm-none-eabi\include\c++\12.2.1\bits\new_allocator.h **** /** @file bits/new_allocator.h
  26:c:\program files (x86)\arm gnu toolchain arm-none-eabi\12.2 rel1\arm-none-eabi\include\c++\12.2.1\bits\new_allocator.h ****  *  This is an internal header file, included by other library headers.
  27:c:\program files (x86)\arm gnu toolchain arm-none-eabi\12.2 rel1\arm-none-eabi\include\c++\12.2.1\bits\new_allocator.h ****  *  Do not attempt to use it directly. @headername{memory}
  28:c:\program files (x86)\arm gnu toolchain arm-none-eabi\12.2 rel1\arm-none-eabi\include\c++\12.2.1\bits\new_allocator.h ****  */
  29:c:\program files (x86)\arm gnu toolchain arm-none-eabi\12.2 rel1\arm-none-eabi\include\c++\12.2.1\bits\new_allocator.h **** 
  30:c:\program files (x86)\arm gnu toolchain arm-none-eabi\12.2 rel1\arm-none-eabi\include\c++\12.2.1\bits\new_allocator.h **** #ifndef _STD_NEW_ALLOCATOR_H
  31:c:\program files (x86)\arm gnu toolchain arm-none-eabi\12.2 rel1\arm-none-eabi\include\c++\12.2.1\bits\new_allocator.h **** #define _STD_NEW_ALLOCATOR_H 1
  32:c:\program files (x86)\arm gnu toolchain arm-none-eabi\12.2 rel1\arm-none-eabi\include\c++\12.2.1\bits\new_allocator.h **** 
  33:c:\program files (x86)\arm gnu toolchain arm-none-eabi\12.2 rel1\arm-none-eabi\include\c++\12.2.1\bits\new_allocator.h **** #include <bits/c++config.h>
  34:c:\program files (x86)\arm gnu toolchain arm-none-eabi\12.2 rel1\arm-none-eabi\include\c++\12.2.1\bits\new_allocator.h **** #include <new>
  35:c:\program files (x86)\arm gnu toolchain arm-none-eabi\12.2 rel1\arm-none-eabi\include\c++\12.2.1\bits\new_allocator.h **** #include <bits/functexcept.h>
  36:c:\program files (x86)\arm gnu toolchain arm-none-eabi\12.2 rel1\arm-none-eabi\include\c++\12.2.1\bits\new_allocator.h **** #include <bits/move.h>
  37:c:\program files (x86)\arm gnu toolchain arm-none-eabi\12.2 rel1\arm-none-eabi\include\c++\12.2.1\bits\new_allocator.h **** #if __cplusplus >= 201103L
  38:c:\program files (x86)\arm gnu toolchain arm-none-eabi\12.2 rel1\arm-none-eabi\include\c++\12.2.1\bits\new_allocator.h **** #include <type_traits>
  39:c:\program files (x86)\arm gnu toolchain arm-none-eabi\12.2 rel1\arm-none-eabi\include\c++\12.2.1\bits\new_allocator.h **** #endif
  40:c:\program files (x86)\arm gnu toolchain arm-none-eabi\12.2 rel1\arm-none-eabi\include\c++\12.2.1\bits\new_allocator.h **** 
ARM GAS  C:\Users\wyx12\AppData\Local\Temp\ccLiZMYq.s 			page 27


  41:c:\program files (x86)\arm gnu toolchain arm-none-eabi\12.2 rel1\arm-none-eabi\include\c++\12.2.1\bits\new_allocator.h **** namespace std _GLIBCXX_VISIBILITY(default)
  42:c:\program files (x86)\arm gnu toolchain arm-none-eabi\12.2 rel1\arm-none-eabi\include\c++\12.2.1\bits\new_allocator.h **** {
  43:c:\program files (x86)\arm gnu toolchain arm-none-eabi\12.2 rel1\arm-none-eabi\include\c++\12.2.1\bits\new_allocator.h **** _GLIBCXX_BEGIN_NAMESPACE_VERSION
  44:c:\program files (x86)\arm gnu toolchain arm-none-eabi\12.2 rel1\arm-none-eabi\include\c++\12.2.1\bits\new_allocator.h **** 
  45:c:\program files (x86)\arm gnu toolchain arm-none-eabi\12.2 rel1\arm-none-eabi\include\c++\12.2.1\bits\new_allocator.h ****   /**
  46:c:\program files (x86)\arm gnu toolchain arm-none-eabi\12.2 rel1\arm-none-eabi\include\c++\12.2.1\bits\new_allocator.h ****    *  @brief  An allocator that uses global new, as per C++03 [20.4.1].
  47:c:\program files (x86)\arm gnu toolchain arm-none-eabi\12.2 rel1\arm-none-eabi\include\c++\12.2.1\bits\new_allocator.h ****    *  @ingroup allocators
  48:c:\program files (x86)\arm gnu toolchain arm-none-eabi\12.2 rel1\arm-none-eabi\include\c++\12.2.1\bits\new_allocator.h ****    *
  49:c:\program files (x86)\arm gnu toolchain arm-none-eabi\12.2 rel1\arm-none-eabi\include\c++\12.2.1\bits\new_allocator.h ****    *  This is precisely the allocator defined in the C++ Standard.
  50:c:\program files (x86)\arm gnu toolchain arm-none-eabi\12.2 rel1\arm-none-eabi\include\c++\12.2.1\bits\new_allocator.h ****    *    - all allocation calls operator new
  51:c:\program files (x86)\arm gnu toolchain arm-none-eabi\12.2 rel1\arm-none-eabi\include\c++\12.2.1\bits\new_allocator.h ****    *    - all deallocation calls operator delete
  52:c:\program files (x86)\arm gnu toolchain arm-none-eabi\12.2 rel1\arm-none-eabi\include\c++\12.2.1\bits\new_allocator.h ****    *
  53:c:\program files (x86)\arm gnu toolchain arm-none-eabi\12.2 rel1\arm-none-eabi\include\c++\12.2.1\bits\new_allocator.h ****    *  @tparam  _Tp  Type of allocated object.
  54:c:\program files (x86)\arm gnu toolchain arm-none-eabi\12.2 rel1\arm-none-eabi\include\c++\12.2.1\bits\new_allocator.h ****    */
  55:c:\program files (x86)\arm gnu toolchain arm-none-eabi\12.2 rel1\arm-none-eabi\include\c++\12.2.1\bits\new_allocator.h ****   template<typename _Tp>
  56:c:\program files (x86)\arm gnu toolchain arm-none-eabi\12.2 rel1\arm-none-eabi\include\c++\12.2.1\bits\new_allocator.h ****     class __new_allocator
  57:c:\program files (x86)\arm gnu toolchain arm-none-eabi\12.2 rel1\arm-none-eabi\include\c++\12.2.1\bits\new_allocator.h ****     {
  58:c:\program files (x86)\arm gnu toolchain arm-none-eabi\12.2 rel1\arm-none-eabi\include\c++\12.2.1\bits\new_allocator.h ****     public:
  59:c:\program files (x86)\arm gnu toolchain arm-none-eabi\12.2 rel1\arm-none-eabi\include\c++\12.2.1\bits\new_allocator.h ****       typedef _Tp        value_type;
  60:c:\program files (x86)\arm gnu toolchain arm-none-eabi\12.2 rel1\arm-none-eabi\include\c++\12.2.1\bits\new_allocator.h ****       typedef std::size_t     size_type;
  61:c:\program files (x86)\arm gnu toolchain arm-none-eabi\12.2 rel1\arm-none-eabi\include\c++\12.2.1\bits\new_allocator.h ****       typedef std::ptrdiff_t  difference_type;
  62:c:\program files (x86)\arm gnu toolchain arm-none-eabi\12.2 rel1\arm-none-eabi\include\c++\12.2.1\bits\new_allocator.h **** #if __cplusplus <= 201703L
  63:c:\program files (x86)\arm gnu toolchain arm-none-eabi\12.2 rel1\arm-none-eabi\include\c++\12.2.1\bits\new_allocator.h ****       typedef _Tp*       pointer;
  64:c:\program files (x86)\arm gnu toolchain arm-none-eabi\12.2 rel1\arm-none-eabi\include\c++\12.2.1\bits\new_allocator.h ****       typedef const _Tp* const_pointer;
  65:c:\program files (x86)\arm gnu toolchain arm-none-eabi\12.2 rel1\arm-none-eabi\include\c++\12.2.1\bits\new_allocator.h ****       typedef _Tp&       reference;
  66:c:\program files (x86)\arm gnu toolchain arm-none-eabi\12.2 rel1\arm-none-eabi\include\c++\12.2.1\bits\new_allocator.h ****       typedef const _Tp& const_reference;
  67:c:\program files (x86)\arm gnu toolchain arm-none-eabi\12.2 rel1\arm-none-eabi\include\c++\12.2.1\bits\new_allocator.h **** 
  68:c:\program files (x86)\arm gnu toolchain arm-none-eabi\12.2 rel1\arm-none-eabi\include\c++\12.2.1\bits\new_allocator.h ****       template<typename _Tp1>
  69:c:\program files (x86)\arm gnu toolchain arm-none-eabi\12.2 rel1\arm-none-eabi\include\c++\12.2.1\bits\new_allocator.h **** 	struct rebind
  70:c:\program files (x86)\arm gnu toolchain arm-none-eabi\12.2 rel1\arm-none-eabi\include\c++\12.2.1\bits\new_allocator.h **** 	{ typedef __new_allocator<_Tp1> other; };
  71:c:\program files (x86)\arm gnu toolchain arm-none-eabi\12.2 rel1\arm-none-eabi\include\c++\12.2.1\bits\new_allocator.h **** #endif
  72:c:\program files (x86)\arm gnu toolchain arm-none-eabi\12.2 rel1\arm-none-eabi\include\c++\12.2.1\bits\new_allocator.h **** 
  73:c:\program files (x86)\arm gnu toolchain arm-none-eabi\12.2 rel1\arm-none-eabi\include\c++\12.2.1\bits\new_allocator.h **** #if __cplusplus >= 201103L
  74:c:\program files (x86)\arm gnu toolchain arm-none-eabi\12.2 rel1\arm-none-eabi\include\c++\12.2.1\bits\new_allocator.h ****       // _GLIBCXX_RESOLVE_LIB_DEFECTS
  75:c:\program files (x86)\arm gnu toolchain arm-none-eabi\12.2 rel1\arm-none-eabi\include\c++\12.2.1\bits\new_allocator.h ****       // 2103. propagate_on_container_move_assignment
  76:c:\program files (x86)\arm gnu toolchain arm-none-eabi\12.2 rel1\arm-none-eabi\include\c++\12.2.1\bits\new_allocator.h ****       typedef std::true_type propagate_on_container_move_assignment;
  77:c:\program files (x86)\arm gnu toolchain arm-none-eabi\12.2 rel1\arm-none-eabi\include\c++\12.2.1\bits\new_allocator.h **** #endif
  78:c:\program files (x86)\arm gnu toolchain arm-none-eabi\12.2 rel1\arm-none-eabi\include\c++\12.2.1\bits\new_allocator.h **** 
  79:c:\program files (x86)\arm gnu toolchain arm-none-eabi\12.2 rel1\arm-none-eabi\include\c++\12.2.1\bits\new_allocator.h ****       _GLIBCXX20_CONSTEXPR
  80:c:\program files (x86)\arm gnu toolchain arm-none-eabi\12.2 rel1\arm-none-eabi\include\c++\12.2.1\bits\new_allocator.h ****       __new_allocator() _GLIBCXX_USE_NOEXCEPT { }
  81:c:\program files (x86)\arm gnu toolchain arm-none-eabi\12.2 rel1\arm-none-eabi\include\c++\12.2.1\bits\new_allocator.h **** 
  82:c:\program files (x86)\arm gnu toolchain arm-none-eabi\12.2 rel1\arm-none-eabi\include\c++\12.2.1\bits\new_allocator.h ****       _GLIBCXX20_CONSTEXPR
  83:c:\program files (x86)\arm gnu toolchain arm-none-eabi\12.2 rel1\arm-none-eabi\include\c++\12.2.1\bits\new_allocator.h ****       __new_allocator(const __new_allocator&) _GLIBCXX_USE_NOEXCEPT { }
  84:c:\program files (x86)\arm gnu toolchain arm-none-eabi\12.2 rel1\arm-none-eabi\include\c++\12.2.1\bits\new_allocator.h **** 
  85:c:\program files (x86)\arm gnu toolchain arm-none-eabi\12.2 rel1\arm-none-eabi\include\c++\12.2.1\bits\new_allocator.h ****       template<typename _Tp1>
  86:c:\program files (x86)\arm gnu toolchain arm-none-eabi\12.2 rel1\arm-none-eabi\include\c++\12.2.1\bits\new_allocator.h **** 	_GLIBCXX20_CONSTEXPR
  87:c:\program files (x86)\arm gnu toolchain arm-none-eabi\12.2 rel1\arm-none-eabi\include\c++\12.2.1\bits\new_allocator.h **** 	__new_allocator(const __new_allocator<_Tp1>&) _GLIBCXX_USE_NOEXCEPT { }
  88:c:\program files (x86)\arm gnu toolchain arm-none-eabi\12.2 rel1\arm-none-eabi\include\c++\12.2.1\bits\new_allocator.h **** 
  89:c:\program files (x86)\arm gnu toolchain arm-none-eabi\12.2 rel1\arm-none-eabi\include\c++\12.2.1\bits\new_allocator.h **** #if __cplusplus <= 201703L
  90:c:\program files (x86)\arm gnu toolchain arm-none-eabi\12.2 rel1\arm-none-eabi\include\c++\12.2.1\bits\new_allocator.h ****       ~__new_allocator() _GLIBCXX_USE_NOEXCEPT { }
  91:c:\program files (x86)\arm gnu toolchain arm-none-eabi\12.2 rel1\arm-none-eabi\include\c++\12.2.1\bits\new_allocator.h **** 
  92:c:\program files (x86)\arm gnu toolchain arm-none-eabi\12.2 rel1\arm-none-eabi\include\c++\12.2.1\bits\new_allocator.h ****       pointer
  93:c:\program files (x86)\arm gnu toolchain arm-none-eabi\12.2 rel1\arm-none-eabi\include\c++\12.2.1\bits\new_allocator.h ****       address(reference __x) const _GLIBCXX_NOEXCEPT
  94:c:\program files (x86)\arm gnu toolchain arm-none-eabi\12.2 rel1\arm-none-eabi\include\c++\12.2.1\bits\new_allocator.h ****       { return std::__addressof(__x); }
  95:c:\program files (x86)\arm gnu toolchain arm-none-eabi\12.2 rel1\arm-none-eabi\include\c++\12.2.1\bits\new_allocator.h **** 
  96:c:\program files (x86)\arm gnu toolchain arm-none-eabi\12.2 rel1\arm-none-eabi\include\c++\12.2.1\bits\new_allocator.h ****       const_pointer
  97:c:\program files (x86)\arm gnu toolchain arm-none-eabi\12.2 rel1\arm-none-eabi\include\c++\12.2.1\bits\new_allocator.h ****       address(const_reference __x) const _GLIBCXX_NOEXCEPT
ARM GAS  C:\Users\wyx12\AppData\Local\Temp\ccLiZMYq.s 			page 28


  98:c:\program files (x86)\arm gnu toolchain arm-none-eabi\12.2 rel1\arm-none-eabi\include\c++\12.2.1\bits\new_allocator.h ****       { return std::__addressof(__x); }
  99:c:\program files (x86)\arm gnu toolchain arm-none-eabi\12.2 rel1\arm-none-eabi\include\c++\12.2.1\bits\new_allocator.h **** #endif
 100:c:\program files (x86)\arm gnu toolchain arm-none-eabi\12.2 rel1\arm-none-eabi\include\c++\12.2.1\bits\new_allocator.h **** 
 101:c:\program files (x86)\arm gnu toolchain arm-none-eabi\12.2 rel1\arm-none-eabi\include\c++\12.2.1\bits\new_allocator.h **** #if __has_builtin(__builtin_operator_new) >= 201802L
 102:c:\program files (x86)\arm gnu toolchain arm-none-eabi\12.2 rel1\arm-none-eabi\include\c++\12.2.1\bits\new_allocator.h **** # define _GLIBCXX_OPERATOR_NEW __builtin_operator_new
 103:c:\program files (x86)\arm gnu toolchain arm-none-eabi\12.2 rel1\arm-none-eabi\include\c++\12.2.1\bits\new_allocator.h **** # define _GLIBCXX_OPERATOR_DELETE __builtin_operator_delete
 104:c:\program files (x86)\arm gnu toolchain arm-none-eabi\12.2 rel1\arm-none-eabi\include\c++\12.2.1\bits\new_allocator.h **** #else
 105:c:\program files (x86)\arm gnu toolchain arm-none-eabi\12.2 rel1\arm-none-eabi\include\c++\12.2.1\bits\new_allocator.h **** # define _GLIBCXX_OPERATOR_NEW ::operator new
 106:c:\program files (x86)\arm gnu toolchain arm-none-eabi\12.2 rel1\arm-none-eabi\include\c++\12.2.1\bits\new_allocator.h **** # define _GLIBCXX_OPERATOR_DELETE ::operator delete
 107:c:\program files (x86)\arm gnu toolchain arm-none-eabi\12.2 rel1\arm-none-eabi\include\c++\12.2.1\bits\new_allocator.h **** #endif
 108:c:\program files (x86)\arm gnu toolchain arm-none-eabi\12.2 rel1\arm-none-eabi\include\c++\12.2.1\bits\new_allocator.h **** 
 109:c:\program files (x86)\arm gnu toolchain arm-none-eabi\12.2 rel1\arm-none-eabi\include\c++\12.2.1\bits\new_allocator.h ****       // NB: __n is permitted to be 0.  The C++ standard says nothing
 110:c:\program files (x86)\arm gnu toolchain arm-none-eabi\12.2 rel1\arm-none-eabi\include\c++\12.2.1\bits\new_allocator.h ****       // about what the return value is when __n == 0.
 111:c:\program files (x86)\arm gnu toolchain arm-none-eabi\12.2 rel1\arm-none-eabi\include\c++\12.2.1\bits\new_allocator.h ****       _GLIBCXX_NODISCARD _Tp*
 112:c:\program files (x86)\arm gnu toolchain arm-none-eabi\12.2 rel1\arm-none-eabi\include\c++\12.2.1\bits\new_allocator.h ****       allocate(size_type __n, const void* = static_cast<const void*>(0))
 113:c:\program files (x86)\arm gnu toolchain arm-none-eabi\12.2 rel1\arm-none-eabi\include\c++\12.2.1\bits\new_allocator.h ****       {
 114:c:\program files (x86)\arm gnu toolchain arm-none-eabi\12.2 rel1\arm-none-eabi\include\c++\12.2.1\bits\new_allocator.h **** #if __cplusplus >= 201103L
 115:c:\program files (x86)\arm gnu toolchain arm-none-eabi\12.2 rel1\arm-none-eabi\include\c++\12.2.1\bits\new_allocator.h **** 	// _GLIBCXX_RESOLVE_LIB_DEFECTS
 116:c:\program files (x86)\arm gnu toolchain arm-none-eabi\12.2 rel1\arm-none-eabi\include\c++\12.2.1\bits\new_allocator.h **** 	// 3308. std::allocator<void>().allocate(n)
 117:c:\program files (x86)\arm gnu toolchain arm-none-eabi\12.2 rel1\arm-none-eabi\include\c++\12.2.1\bits\new_allocator.h **** 	static_assert(sizeof(_Tp) != 0, "cannot allocate incomplete types");
 118:c:\program files (x86)\arm gnu toolchain arm-none-eabi\12.2 rel1\arm-none-eabi\include\c++\12.2.1\bits\new_allocator.h **** #endif
 119:c:\program files (x86)\arm gnu toolchain arm-none-eabi\12.2 rel1\arm-none-eabi\include\c++\12.2.1\bits\new_allocator.h **** 
 120:c:\program files (x86)\arm gnu toolchain arm-none-eabi\12.2 rel1\arm-none-eabi\include\c++\12.2.1\bits\new_allocator.h **** 	if (__builtin_expect(__n > this->_M_max_size(), false))
 121:c:\program files (x86)\arm gnu toolchain arm-none-eabi\12.2 rel1\arm-none-eabi\include\c++\12.2.1\bits\new_allocator.h **** 	  {
 122:c:\program files (x86)\arm gnu toolchain arm-none-eabi\12.2 rel1\arm-none-eabi\include\c++\12.2.1\bits\new_allocator.h **** 	    // _GLIBCXX_RESOLVE_LIB_DEFECTS
 123:c:\program files (x86)\arm gnu toolchain arm-none-eabi\12.2 rel1\arm-none-eabi\include\c++\12.2.1\bits\new_allocator.h **** 	    // 3190. allocator::allocate sometimes returns too little storage
 124:c:\program files (x86)\arm gnu toolchain arm-none-eabi\12.2 rel1\arm-none-eabi\include\c++\12.2.1\bits\new_allocator.h **** 	    if (__n > (std::size_t(-1) / sizeof(_Tp)))
 125:c:\program files (x86)\arm gnu toolchain arm-none-eabi\12.2 rel1\arm-none-eabi\include\c++\12.2.1\bits\new_allocator.h **** 	      std::__throw_bad_array_new_length();
 126:c:\program files (x86)\arm gnu toolchain arm-none-eabi\12.2 rel1\arm-none-eabi\include\c++\12.2.1\bits\new_allocator.h **** 	    std::__throw_bad_alloc();
 127:c:\program files (x86)\arm gnu toolchain arm-none-eabi\12.2 rel1\arm-none-eabi\include\c++\12.2.1\bits\new_allocator.h **** 	  }
 128:c:\program files (x86)\arm gnu toolchain arm-none-eabi\12.2 rel1\arm-none-eabi\include\c++\12.2.1\bits\new_allocator.h **** 
 129:c:\program files (x86)\arm gnu toolchain arm-none-eabi\12.2 rel1\arm-none-eabi\include\c++\12.2.1\bits\new_allocator.h **** #if __cpp_aligned_new
 130:c:\program files (x86)\arm gnu toolchain arm-none-eabi\12.2 rel1\arm-none-eabi\include\c++\12.2.1\bits\new_allocator.h **** 	if (alignof(_Tp) > __STDCPP_DEFAULT_NEW_ALIGNMENT__)
 131:c:\program files (x86)\arm gnu toolchain arm-none-eabi\12.2 rel1\arm-none-eabi\include\c++\12.2.1\bits\new_allocator.h **** 	  {
 132:c:\program files (x86)\arm gnu toolchain arm-none-eabi\12.2 rel1\arm-none-eabi\include\c++\12.2.1\bits\new_allocator.h **** 	    std::align_val_t __al = std::align_val_t(alignof(_Tp));
 133:c:\program files (x86)\arm gnu toolchain arm-none-eabi\12.2 rel1\arm-none-eabi\include\c++\12.2.1\bits\new_allocator.h **** 	    return static_cast<_Tp*>(_GLIBCXX_OPERATOR_NEW(__n * sizeof(_Tp),
 134:c:\program files (x86)\arm gnu toolchain arm-none-eabi\12.2 rel1\arm-none-eabi\include\c++\12.2.1\bits\new_allocator.h **** 							   __al));
 135:c:\program files (x86)\arm gnu toolchain arm-none-eabi\12.2 rel1\arm-none-eabi\include\c++\12.2.1\bits\new_allocator.h **** 	  }
 136:c:\program files (x86)\arm gnu toolchain arm-none-eabi\12.2 rel1\arm-none-eabi\include\c++\12.2.1\bits\new_allocator.h **** #endif
 137:c:\program files (x86)\arm gnu toolchain arm-none-eabi\12.2 rel1\arm-none-eabi\include\c++\12.2.1\bits\new_allocator.h **** 	return static_cast<_Tp*>(_GLIBCXX_OPERATOR_NEW(__n * sizeof(_Tp)));
 138:c:\program files (x86)\arm gnu toolchain arm-none-eabi\12.2 rel1\arm-none-eabi\include\c++\12.2.1\bits\new_allocator.h ****       }
 139:c:\program files (x86)\arm gnu toolchain arm-none-eabi\12.2 rel1\arm-none-eabi\include\c++\12.2.1\bits\new_allocator.h **** 
 140:c:\program files (x86)\arm gnu toolchain arm-none-eabi\12.2 rel1\arm-none-eabi\include\c++\12.2.1\bits\new_allocator.h ****       // __p is not permitted to be a null pointer.
 141:c:\program files (x86)\arm gnu toolchain arm-none-eabi\12.2 rel1\arm-none-eabi\include\c++\12.2.1\bits\new_allocator.h ****       void
 142:c:\program files (x86)\arm gnu toolchain arm-none-eabi\12.2 rel1\arm-none-eabi\include\c++\12.2.1\bits\new_allocator.h ****       deallocate(_Tp* __p, size_type __n __attribute__ ((__unused__)))
 211              		.loc 5 142 7 view .LVU51
 212              	.LBB645:
 143:c:\program files (x86)\arm gnu toolchain arm-none-eabi\12.2 rel1\arm-none-eabi\include\c++\12.2.1\bits\new_allocator.h ****       {
 144:c:\program files (x86)\arm gnu toolchain arm-none-eabi\12.2 rel1\arm-none-eabi\include\c++\12.2.1\bits\new_allocator.h **** #if __cpp_sized_deallocation
 145:c:\program files (x86)\arm gnu toolchain arm-none-eabi\12.2 rel1\arm-none-eabi\include\c++\12.2.1\bits\new_allocator.h **** # define _GLIBCXX_SIZED_DEALLOC(p, n) (p), (n) * sizeof(_Tp)
 146:c:\program files (x86)\arm gnu toolchain arm-none-eabi\12.2 rel1\arm-none-eabi\include\c++\12.2.1\bits\new_allocator.h **** #else
 147:c:\program files (x86)\arm gnu toolchain arm-none-eabi\12.2 rel1\arm-none-eabi\include\c++\12.2.1\bits\new_allocator.h **** # define _GLIBCXX_SIZED_DEALLOC(p, n) (p)
 148:c:\program files (x86)\arm gnu toolchain arm-none-eabi\12.2 rel1\arm-none-eabi\include\c++\12.2.1\bits\new_allocator.h **** #endif
 149:c:\program files (x86)\arm gnu toolchain arm-none-eabi\12.2 rel1\arm-none-eabi\include\c++\12.2.1\bits\new_allocator.h **** 
 150:c:\program files (x86)\arm gnu toolchain arm-none-eabi\12.2 rel1\arm-none-eabi\include\c++\12.2.1\bits\new_allocator.h **** #if __cpp_aligned_new
 151:c:\program files (x86)\arm gnu toolchain arm-none-eabi\12.2 rel1\arm-none-eabi\include\c++\12.2.1\bits\new_allocator.h **** 	if (alignof(_Tp) > __STDCPP_DEFAULT_NEW_ALIGNMENT__)
 152:c:\program files (x86)\arm gnu toolchain arm-none-eabi\12.2 rel1\arm-none-eabi\include\c++\12.2.1\bits\new_allocator.h **** 	  {
ARM GAS  C:\Users\wyx12\AppData\Local\Temp\ccLiZMYq.s 			page 29


 153:c:\program files (x86)\arm gnu toolchain arm-none-eabi\12.2 rel1\arm-none-eabi\include\c++\12.2.1\bits\new_allocator.h **** 	    _GLIBCXX_OPERATOR_DELETE(_GLIBCXX_SIZED_DEALLOC(__p, __n),
 154:c:\program files (x86)\arm gnu toolchain arm-none-eabi\12.2 rel1\arm-none-eabi\include\c++\12.2.1\bits\new_allocator.h **** 				     std::align_val_t(alignof(_Tp)));
 155:c:\program files (x86)\arm gnu toolchain arm-none-eabi\12.2 rel1\arm-none-eabi\include\c++\12.2.1\bits\new_allocator.h **** 	    return;
 156:c:\program files (x86)\arm gnu toolchain arm-none-eabi\12.2 rel1\arm-none-eabi\include\c++\12.2.1\bits\new_allocator.h **** 	  }
 157:c:\program files (x86)\arm gnu toolchain arm-none-eabi\12.2 rel1\arm-none-eabi\include\c++\12.2.1\bits\new_allocator.h **** #endif
 158:c:\program files (x86)\arm gnu toolchain arm-none-eabi\12.2 rel1\arm-none-eabi\include\c++\12.2.1\bits\new_allocator.h **** 	_GLIBCXX_OPERATOR_DELETE(_GLIBCXX_SIZED_DEALLOC(__p, __n));
 213              		.loc 5 158 26 is_stmt 0 view .LVU52
 214 000c FFF7FEFF 		bl	_ZdlPvj
 215              	.LVL9:
 216              	.L10:
 217              		.loc 5 158 26 view .LVU53
 218              	.LBE645:
 219              	.LBE644:
 220              	.LBE643:
 221              	.LBE642:
 222              	.LBE641:
 223              	.LBE640:
 224              	.LBB646:
 225              	.LBI646:
 133:c:\program files (x86)\arm gnu toolchain arm-none-eabi\12.2 rel1\arm-none-eabi\include\c++\12.2.1\bits\stl_vector.h **** 	: public _Tp_alloc_type, public _Vector_impl_data
 226              		.loc 3 133 14 is_stmt 1 view .LVU54
 227              	.LBB647:
 228              	.LBI647:
 229              		.file 6 "c:\\program files (x86)\\arm gnu toolchain arm-none-eabi\\12.2 rel1\\arm-none-eabi\\inclu
   1:c:\program files (x86)\arm gnu toolchain arm-none-eabi\12.2 rel1\arm-none-eabi\include\c++\12.2.1\bits\allocator.h **** // Allocators -*- C++ -*-
   2:c:\program files (x86)\arm gnu toolchain arm-none-eabi\12.2 rel1\arm-none-eabi\include\c++\12.2.1\bits\allocator.h **** 
   3:c:\program files (x86)\arm gnu toolchain arm-none-eabi\12.2 rel1\arm-none-eabi\include\c++\12.2.1\bits\allocator.h **** // Copyright (C) 2001-2022 Free Software Foundation, Inc.
   4:c:\program files (x86)\arm gnu toolchain arm-none-eabi\12.2 rel1\arm-none-eabi\include\c++\12.2.1\bits\allocator.h **** //
   5:c:\program files (x86)\arm gnu toolchain arm-none-eabi\12.2 rel1\arm-none-eabi\include\c++\12.2.1\bits\allocator.h **** // This file is part of the GNU ISO C++ Library.  This library is free
   6:c:\program files (x86)\arm gnu toolchain arm-none-eabi\12.2 rel1\arm-none-eabi\include\c++\12.2.1\bits\allocator.h **** // software; you can redistribute it and/or modify it under the
   7:c:\program files (x86)\arm gnu toolchain arm-none-eabi\12.2 rel1\arm-none-eabi\include\c++\12.2.1\bits\allocator.h **** // terms of the GNU General Public License as published by the
   8:c:\program files (x86)\arm gnu toolchain arm-none-eabi\12.2 rel1\arm-none-eabi\include\c++\12.2.1\bits\allocator.h **** // Free Software Foundation; either version 3, or (at your option)
   9:c:\program files (x86)\arm gnu toolchain arm-none-eabi\12.2 rel1\arm-none-eabi\include\c++\12.2.1\bits\allocator.h **** // any later version.
  10:c:\program files (x86)\arm gnu toolchain arm-none-eabi\12.2 rel1\arm-none-eabi\include\c++\12.2.1\bits\allocator.h **** 
  11:c:\program files (x86)\arm gnu toolchain arm-none-eabi\12.2 rel1\arm-none-eabi\include\c++\12.2.1\bits\allocator.h **** // This library is distributed in the hope that it will be useful,
  12:c:\program files (x86)\arm gnu toolchain arm-none-eabi\12.2 rel1\arm-none-eabi\include\c++\12.2.1\bits\allocator.h **** // but WITHOUT ANY WARRANTY; without even the implied warranty of
  13:c:\program files (x86)\arm gnu toolchain arm-none-eabi\12.2 rel1\arm-none-eabi\include\c++\12.2.1\bits\allocator.h **** // MERCHANTABILITY or FITNESS FOR A PARTICULAR PURPOSE.  See the
  14:c:\program files (x86)\arm gnu toolchain arm-none-eabi\12.2 rel1\arm-none-eabi\include\c++\12.2.1\bits\allocator.h **** // GNU General Public License for more details.
  15:c:\program files (x86)\arm gnu toolchain arm-none-eabi\12.2 rel1\arm-none-eabi\include\c++\12.2.1\bits\allocator.h **** 
  16:c:\program files (x86)\arm gnu toolchain arm-none-eabi\12.2 rel1\arm-none-eabi\include\c++\12.2.1\bits\allocator.h **** // Under Section 7 of GPL version 3, you are granted additional
  17:c:\program files (x86)\arm gnu toolchain arm-none-eabi\12.2 rel1\arm-none-eabi\include\c++\12.2.1\bits\allocator.h **** // permissions described in the GCC Runtime Library Exception, version
  18:c:\program files (x86)\arm gnu toolchain arm-none-eabi\12.2 rel1\arm-none-eabi\include\c++\12.2.1\bits\allocator.h **** // 3.1, as published by the Free Software Foundation.
  19:c:\program files (x86)\arm gnu toolchain arm-none-eabi\12.2 rel1\arm-none-eabi\include\c++\12.2.1\bits\allocator.h **** 
  20:c:\program files (x86)\arm gnu toolchain arm-none-eabi\12.2 rel1\arm-none-eabi\include\c++\12.2.1\bits\allocator.h **** // You should have received a copy of the GNU General Public License and
  21:c:\program files (x86)\arm gnu toolchain arm-none-eabi\12.2 rel1\arm-none-eabi\include\c++\12.2.1\bits\allocator.h **** // a copy of the GCC Runtime Library Exception along with this program;
  22:c:\program files (x86)\arm gnu toolchain arm-none-eabi\12.2 rel1\arm-none-eabi\include\c++\12.2.1\bits\allocator.h **** // see the files COPYING3 and COPYING.RUNTIME respectively.  If not, see
  23:c:\program files (x86)\arm gnu toolchain arm-none-eabi\12.2 rel1\arm-none-eabi\include\c++\12.2.1\bits\allocator.h **** // <http://www.gnu.org/licenses/>.
  24:c:\program files (x86)\arm gnu toolchain arm-none-eabi\12.2 rel1\arm-none-eabi\include\c++\12.2.1\bits\allocator.h **** 
  25:c:\program files (x86)\arm gnu toolchain arm-none-eabi\12.2 rel1\arm-none-eabi\include\c++\12.2.1\bits\allocator.h **** /*
  26:c:\program files (x86)\arm gnu toolchain arm-none-eabi\12.2 rel1\arm-none-eabi\include\c++\12.2.1\bits\allocator.h ****  * Copyright (c) 1996-1997
  27:c:\program files (x86)\arm gnu toolchain arm-none-eabi\12.2 rel1\arm-none-eabi\include\c++\12.2.1\bits\allocator.h ****  * Silicon Graphics Computer Systems, Inc.
  28:c:\program files (x86)\arm gnu toolchain arm-none-eabi\12.2 rel1\arm-none-eabi\include\c++\12.2.1\bits\allocator.h ****  *
  29:c:\program files (x86)\arm gnu toolchain arm-none-eabi\12.2 rel1\arm-none-eabi\include\c++\12.2.1\bits\allocator.h ****  * Permission to use, copy, modify, distribute and sell this software
  30:c:\program files (x86)\arm gnu toolchain arm-none-eabi\12.2 rel1\arm-none-eabi\include\c++\12.2.1\bits\allocator.h ****  * and its documentation for any purpose is hereby granted without fee,
  31:c:\program files (x86)\arm gnu toolchain arm-none-eabi\12.2 rel1\arm-none-eabi\include\c++\12.2.1\bits\allocator.h ****  * provided that the above copyright notice appear in all copies and
  32:c:\program files (x86)\arm gnu toolchain arm-none-eabi\12.2 rel1\arm-none-eabi\include\c++\12.2.1\bits\allocator.h ****  * that both that copyright notice and this permission notice appear
  33:c:\program files (x86)\arm gnu toolchain arm-none-eabi\12.2 rel1\arm-none-eabi\include\c++\12.2.1\bits\allocator.h ****  * in supporting documentation.  Silicon Graphics makes no
ARM GAS  C:\Users\wyx12\AppData\Local\Temp\ccLiZMYq.s 			page 30


  34:c:\program files (x86)\arm gnu toolchain arm-none-eabi\12.2 rel1\arm-none-eabi\include\c++\12.2.1\bits\allocator.h ****  * representations about the suitability of this software for any
  35:c:\program files (x86)\arm gnu toolchain arm-none-eabi\12.2 rel1\arm-none-eabi\include\c++\12.2.1\bits\allocator.h ****  * purpose.  It is provided "as is" without express or implied warranty.
  36:c:\program files (x86)\arm gnu toolchain arm-none-eabi\12.2 rel1\arm-none-eabi\include\c++\12.2.1\bits\allocator.h ****  */
  37:c:\program files (x86)\arm gnu toolchain arm-none-eabi\12.2 rel1\arm-none-eabi\include\c++\12.2.1\bits\allocator.h **** 
  38:c:\program files (x86)\arm gnu toolchain arm-none-eabi\12.2 rel1\arm-none-eabi\include\c++\12.2.1\bits\allocator.h **** /** @file bits/allocator.h
  39:c:\program files (x86)\arm gnu toolchain arm-none-eabi\12.2 rel1\arm-none-eabi\include\c++\12.2.1\bits\allocator.h ****  *  This is an internal header file, included by other library headers.
  40:c:\program files (x86)\arm gnu toolchain arm-none-eabi\12.2 rel1\arm-none-eabi\include\c++\12.2.1\bits\allocator.h ****  *  Do not attempt to use it directly. @headername{memory}
  41:c:\program files (x86)\arm gnu toolchain arm-none-eabi\12.2 rel1\arm-none-eabi\include\c++\12.2.1\bits\allocator.h ****  */
  42:c:\program files (x86)\arm gnu toolchain arm-none-eabi\12.2 rel1\arm-none-eabi\include\c++\12.2.1\bits\allocator.h **** 
  43:c:\program files (x86)\arm gnu toolchain arm-none-eabi\12.2 rel1\arm-none-eabi\include\c++\12.2.1\bits\allocator.h **** #ifndef _ALLOCATOR_H
  44:c:\program files (x86)\arm gnu toolchain arm-none-eabi\12.2 rel1\arm-none-eabi\include\c++\12.2.1\bits\allocator.h **** #define _ALLOCATOR_H 1
  45:c:\program files (x86)\arm gnu toolchain arm-none-eabi\12.2 rel1\arm-none-eabi\include\c++\12.2.1\bits\allocator.h **** 
  46:c:\program files (x86)\arm gnu toolchain arm-none-eabi\12.2 rel1\arm-none-eabi\include\c++\12.2.1\bits\allocator.h **** #include <bits/c++allocator.h> // Define the base class to std::allocator.
  47:c:\program files (x86)\arm gnu toolchain arm-none-eabi\12.2 rel1\arm-none-eabi\include\c++\12.2.1\bits\allocator.h **** #include <bits/memoryfwd.h>
  48:c:\program files (x86)\arm gnu toolchain arm-none-eabi\12.2 rel1\arm-none-eabi\include\c++\12.2.1\bits\allocator.h **** #if __cplusplus >= 201103L
  49:c:\program files (x86)\arm gnu toolchain arm-none-eabi\12.2 rel1\arm-none-eabi\include\c++\12.2.1\bits\allocator.h **** #include <type_traits>
  50:c:\program files (x86)\arm gnu toolchain arm-none-eabi\12.2 rel1\arm-none-eabi\include\c++\12.2.1\bits\allocator.h **** #endif
  51:c:\program files (x86)\arm gnu toolchain arm-none-eabi\12.2 rel1\arm-none-eabi\include\c++\12.2.1\bits\allocator.h **** 
  52:c:\program files (x86)\arm gnu toolchain arm-none-eabi\12.2 rel1\arm-none-eabi\include\c++\12.2.1\bits\allocator.h **** #define __cpp_lib_incomplete_container_elements 201505L
  53:c:\program files (x86)\arm gnu toolchain arm-none-eabi\12.2 rel1\arm-none-eabi\include\c++\12.2.1\bits\allocator.h **** 
  54:c:\program files (x86)\arm gnu toolchain arm-none-eabi\12.2 rel1\arm-none-eabi\include\c++\12.2.1\bits\allocator.h **** namespace std _GLIBCXX_VISIBILITY(default)
  55:c:\program files (x86)\arm gnu toolchain arm-none-eabi\12.2 rel1\arm-none-eabi\include\c++\12.2.1\bits\allocator.h **** {
  56:c:\program files (x86)\arm gnu toolchain arm-none-eabi\12.2 rel1\arm-none-eabi\include\c++\12.2.1\bits\allocator.h **** _GLIBCXX_BEGIN_NAMESPACE_VERSION
  57:c:\program files (x86)\arm gnu toolchain arm-none-eabi\12.2 rel1\arm-none-eabi\include\c++\12.2.1\bits\allocator.h **** 
  58:c:\program files (x86)\arm gnu toolchain arm-none-eabi\12.2 rel1\arm-none-eabi\include\c++\12.2.1\bits\allocator.h ****   /**
  59:c:\program files (x86)\arm gnu toolchain arm-none-eabi\12.2 rel1\arm-none-eabi\include\c++\12.2.1\bits\allocator.h ****    *  @addtogroup allocators
  60:c:\program files (x86)\arm gnu toolchain arm-none-eabi\12.2 rel1\arm-none-eabi\include\c++\12.2.1\bits\allocator.h ****    *  @{
  61:c:\program files (x86)\arm gnu toolchain arm-none-eabi\12.2 rel1\arm-none-eabi\include\c++\12.2.1\bits\allocator.h ****    */
  62:c:\program files (x86)\arm gnu toolchain arm-none-eabi\12.2 rel1\arm-none-eabi\include\c++\12.2.1\bits\allocator.h **** 
  63:c:\program files (x86)\arm gnu toolchain arm-none-eabi\12.2 rel1\arm-none-eabi\include\c++\12.2.1\bits\allocator.h ****   // Since C++20 the primary template should be used for allocator<void>,
  64:c:\program files (x86)\arm gnu toolchain arm-none-eabi\12.2 rel1\arm-none-eabi\include\c++\12.2.1\bits\allocator.h ****   // but then it would have a non-trivial default ctor and dtor for C++20,
  65:c:\program files (x86)\arm gnu toolchain arm-none-eabi\12.2 rel1\arm-none-eabi\include\c++\12.2.1\bits\allocator.h ****   // but trivial for C++98-17, which would be an ABI incompatibiliy between
  66:c:\program files (x86)\arm gnu toolchain arm-none-eabi\12.2 rel1\arm-none-eabi\include\c++\12.2.1\bits\allocator.h ****   // different standard dialects. So C++20 still uses the allocator<void>
  67:c:\program files (x86)\arm gnu toolchain arm-none-eabi\12.2 rel1\arm-none-eabi\include\c++\12.2.1\bits\allocator.h ****   // explicit specialization, with the historical ABI properties, but with
  68:c:\program files (x86)\arm gnu toolchain arm-none-eabi\12.2 rel1\arm-none-eabi\include\c++\12.2.1\bits\allocator.h ****   // the same members that are present in the primary template.
  69:c:\program files (x86)\arm gnu toolchain arm-none-eabi\12.2 rel1\arm-none-eabi\include\c++\12.2.1\bits\allocator.h **** 
  70:c:\program files (x86)\arm gnu toolchain arm-none-eabi\12.2 rel1\arm-none-eabi\include\c++\12.2.1\bits\allocator.h ****   /// allocator<void> specialization.
  71:c:\program files (x86)\arm gnu toolchain arm-none-eabi\12.2 rel1\arm-none-eabi\include\c++\12.2.1\bits\allocator.h ****   template<>
  72:c:\program files (x86)\arm gnu toolchain arm-none-eabi\12.2 rel1\arm-none-eabi\include\c++\12.2.1\bits\allocator.h ****     class allocator<void>
  73:c:\program files (x86)\arm gnu toolchain arm-none-eabi\12.2 rel1\arm-none-eabi\include\c++\12.2.1\bits\allocator.h ****     {
  74:c:\program files (x86)\arm gnu toolchain arm-none-eabi\12.2 rel1\arm-none-eabi\include\c++\12.2.1\bits\allocator.h ****     public:
  75:c:\program files (x86)\arm gnu toolchain arm-none-eabi\12.2 rel1\arm-none-eabi\include\c++\12.2.1\bits\allocator.h ****       typedef void        value_type;
  76:c:\program files (x86)\arm gnu toolchain arm-none-eabi\12.2 rel1\arm-none-eabi\include\c++\12.2.1\bits\allocator.h ****       typedef size_t      size_type;
  77:c:\program files (x86)\arm gnu toolchain arm-none-eabi\12.2 rel1\arm-none-eabi\include\c++\12.2.1\bits\allocator.h ****       typedef ptrdiff_t   difference_type;
  78:c:\program files (x86)\arm gnu toolchain arm-none-eabi\12.2 rel1\arm-none-eabi\include\c++\12.2.1\bits\allocator.h **** 
  79:c:\program files (x86)\arm gnu toolchain arm-none-eabi\12.2 rel1\arm-none-eabi\include\c++\12.2.1\bits\allocator.h **** #if __cplusplus <= 201703L
  80:c:\program files (x86)\arm gnu toolchain arm-none-eabi\12.2 rel1\arm-none-eabi\include\c++\12.2.1\bits\allocator.h ****       // These were removed for C++20, allocator_traits does the right thing.
  81:c:\program files (x86)\arm gnu toolchain arm-none-eabi\12.2 rel1\arm-none-eabi\include\c++\12.2.1\bits\allocator.h ****       typedef void*       pointer;
  82:c:\program files (x86)\arm gnu toolchain arm-none-eabi\12.2 rel1\arm-none-eabi\include\c++\12.2.1\bits\allocator.h ****       typedef const void* const_pointer;
  83:c:\program files (x86)\arm gnu toolchain arm-none-eabi\12.2 rel1\arm-none-eabi\include\c++\12.2.1\bits\allocator.h **** 
  84:c:\program files (x86)\arm gnu toolchain arm-none-eabi\12.2 rel1\arm-none-eabi\include\c++\12.2.1\bits\allocator.h ****       template<typename _Tp1>
  85:c:\program files (x86)\arm gnu toolchain arm-none-eabi\12.2 rel1\arm-none-eabi\include\c++\12.2.1\bits\allocator.h **** 	struct rebind
  86:c:\program files (x86)\arm gnu toolchain arm-none-eabi\12.2 rel1\arm-none-eabi\include\c++\12.2.1\bits\allocator.h **** 	{ typedef allocator<_Tp1> other; };
  87:c:\program files (x86)\arm gnu toolchain arm-none-eabi\12.2 rel1\arm-none-eabi\include\c++\12.2.1\bits\allocator.h **** #endif
  88:c:\program files (x86)\arm gnu toolchain arm-none-eabi\12.2 rel1\arm-none-eabi\include\c++\12.2.1\bits\allocator.h **** 
  89:c:\program files (x86)\arm gnu toolchain arm-none-eabi\12.2 rel1\arm-none-eabi\include\c++\12.2.1\bits\allocator.h **** #if __cplusplus >= 201103L
  90:c:\program files (x86)\arm gnu toolchain arm-none-eabi\12.2 rel1\arm-none-eabi\include\c++\12.2.1\bits\allocator.h ****       // _GLIBCXX_RESOLVE_LIB_DEFECTS
ARM GAS  C:\Users\wyx12\AppData\Local\Temp\ccLiZMYq.s 			page 31


  91:c:\program files (x86)\arm gnu toolchain arm-none-eabi\12.2 rel1\arm-none-eabi\include\c++\12.2.1\bits\allocator.h ****       // 2103. std::allocator propagate_on_container_move_assignment
  92:c:\program files (x86)\arm gnu toolchain arm-none-eabi\12.2 rel1\arm-none-eabi\include\c++\12.2.1\bits\allocator.h ****       using propagate_on_container_move_assignment = true_type;
  93:c:\program files (x86)\arm gnu toolchain arm-none-eabi\12.2 rel1\arm-none-eabi\include\c++\12.2.1\bits\allocator.h **** 
  94:c:\program files (x86)\arm gnu toolchain arm-none-eabi\12.2 rel1\arm-none-eabi\include\c++\12.2.1\bits\allocator.h ****       using is_always_equal
  95:c:\program files (x86)\arm gnu toolchain arm-none-eabi\12.2 rel1\arm-none-eabi\include\c++\12.2.1\bits\allocator.h **** 	_GLIBCXX20_DEPRECATED_SUGGEST("std::allocator_traits::is_always_equal")
  96:c:\program files (x86)\arm gnu toolchain arm-none-eabi\12.2 rel1\arm-none-eabi\include\c++\12.2.1\bits\allocator.h **** 	= true_type;
  97:c:\program files (x86)\arm gnu toolchain arm-none-eabi\12.2 rel1\arm-none-eabi\include\c++\12.2.1\bits\allocator.h **** 
  98:c:\program files (x86)\arm gnu toolchain arm-none-eabi\12.2 rel1\arm-none-eabi\include\c++\12.2.1\bits\allocator.h **** #if __cplusplus >= 202002L
  99:c:\program files (x86)\arm gnu toolchain arm-none-eabi\12.2 rel1\arm-none-eabi\include\c++\12.2.1\bits\allocator.h ****       // As noted above, these members are present for C++20 to provide the
 100:c:\program files (x86)\arm gnu toolchain arm-none-eabi\12.2 rel1\arm-none-eabi\include\c++\12.2.1\bits\allocator.h ****       // same API as the primary template, but still trivial as in pre-C++20.
 101:c:\program files (x86)\arm gnu toolchain arm-none-eabi\12.2 rel1\arm-none-eabi\include\c++\12.2.1\bits\allocator.h ****       allocator() = default;
 102:c:\program files (x86)\arm gnu toolchain arm-none-eabi\12.2 rel1\arm-none-eabi\include\c++\12.2.1\bits\allocator.h ****       ~allocator() = default;
 103:c:\program files (x86)\arm gnu toolchain arm-none-eabi\12.2 rel1\arm-none-eabi\include\c++\12.2.1\bits\allocator.h **** 
 104:c:\program files (x86)\arm gnu toolchain arm-none-eabi\12.2 rel1\arm-none-eabi\include\c++\12.2.1\bits\allocator.h ****       template<typename _Up>
 105:c:\program files (x86)\arm gnu toolchain arm-none-eabi\12.2 rel1\arm-none-eabi\include\c++\12.2.1\bits\allocator.h **** 	constexpr
 106:c:\program files (x86)\arm gnu toolchain arm-none-eabi\12.2 rel1\arm-none-eabi\include\c++\12.2.1\bits\allocator.h **** 	allocator(const allocator<_Up>&) noexcept { }
 107:c:\program files (x86)\arm gnu toolchain arm-none-eabi\12.2 rel1\arm-none-eabi\include\c++\12.2.1\bits\allocator.h **** 
 108:c:\program files (x86)\arm gnu toolchain arm-none-eabi\12.2 rel1\arm-none-eabi\include\c++\12.2.1\bits\allocator.h ****       // No allocate member because it's ill-formed by LWG 3307.
 109:c:\program files (x86)\arm gnu toolchain arm-none-eabi\12.2 rel1\arm-none-eabi\include\c++\12.2.1\bits\allocator.h ****       // No deallocate member because it would be undefined to call it
 110:c:\program files (x86)\arm gnu toolchain arm-none-eabi\12.2 rel1\arm-none-eabi\include\c++\12.2.1\bits\allocator.h ****       // with any pointer which wasn't obtained from allocate.
 111:c:\program files (x86)\arm gnu toolchain arm-none-eabi\12.2 rel1\arm-none-eabi\include\c++\12.2.1\bits\allocator.h **** #endif // C++20
 112:c:\program files (x86)\arm gnu toolchain arm-none-eabi\12.2 rel1\arm-none-eabi\include\c++\12.2.1\bits\allocator.h **** #endif // C++11
 113:c:\program files (x86)\arm gnu toolchain arm-none-eabi\12.2 rel1\arm-none-eabi\include\c++\12.2.1\bits\allocator.h ****     };
 114:c:\program files (x86)\arm gnu toolchain arm-none-eabi\12.2 rel1\arm-none-eabi\include\c++\12.2.1\bits\allocator.h **** 
 115:c:\program files (x86)\arm gnu toolchain arm-none-eabi\12.2 rel1\arm-none-eabi\include\c++\12.2.1\bits\allocator.h ****   /**
 116:c:\program files (x86)\arm gnu toolchain arm-none-eabi\12.2 rel1\arm-none-eabi\include\c++\12.2.1\bits\allocator.h ****    * @brief  The @a standard allocator, as per C++03 [20.4.1].
 117:c:\program files (x86)\arm gnu toolchain arm-none-eabi\12.2 rel1\arm-none-eabi\include\c++\12.2.1\bits\allocator.h ****    *
 118:c:\program files (x86)\arm gnu toolchain arm-none-eabi\12.2 rel1\arm-none-eabi\include\c++\12.2.1\bits\allocator.h ****    *  See https://gcc.gnu.org/onlinedocs/libstdc++/manual/memory.html#std.util.memory.allocator
 119:c:\program files (x86)\arm gnu toolchain arm-none-eabi\12.2 rel1\arm-none-eabi\include\c++\12.2.1\bits\allocator.h ****    *  for further details.
 120:c:\program files (x86)\arm gnu toolchain arm-none-eabi\12.2 rel1\arm-none-eabi\include\c++\12.2.1\bits\allocator.h ****    *
 121:c:\program files (x86)\arm gnu toolchain arm-none-eabi\12.2 rel1\arm-none-eabi\include\c++\12.2.1\bits\allocator.h ****    *  @tparam  _Tp  Type of allocated object.
 122:c:\program files (x86)\arm gnu toolchain arm-none-eabi\12.2 rel1\arm-none-eabi\include\c++\12.2.1\bits\allocator.h ****    */
 123:c:\program files (x86)\arm gnu toolchain arm-none-eabi\12.2 rel1\arm-none-eabi\include\c++\12.2.1\bits\allocator.h ****   template<typename _Tp>
 124:c:\program files (x86)\arm gnu toolchain arm-none-eabi\12.2 rel1\arm-none-eabi\include\c++\12.2.1\bits\allocator.h ****     class allocator : public __allocator_base<_Tp>
 125:c:\program files (x86)\arm gnu toolchain arm-none-eabi\12.2 rel1\arm-none-eabi\include\c++\12.2.1\bits\allocator.h ****     {
 126:c:\program files (x86)\arm gnu toolchain arm-none-eabi\12.2 rel1\arm-none-eabi\include\c++\12.2.1\bits\allocator.h ****     public:
 127:c:\program files (x86)\arm gnu toolchain arm-none-eabi\12.2 rel1\arm-none-eabi\include\c++\12.2.1\bits\allocator.h ****       typedef _Tp        value_type;
 128:c:\program files (x86)\arm gnu toolchain arm-none-eabi\12.2 rel1\arm-none-eabi\include\c++\12.2.1\bits\allocator.h ****       typedef size_t     size_type;
 129:c:\program files (x86)\arm gnu toolchain arm-none-eabi\12.2 rel1\arm-none-eabi\include\c++\12.2.1\bits\allocator.h ****       typedef ptrdiff_t  difference_type;
 130:c:\program files (x86)\arm gnu toolchain arm-none-eabi\12.2 rel1\arm-none-eabi\include\c++\12.2.1\bits\allocator.h **** 
 131:c:\program files (x86)\arm gnu toolchain arm-none-eabi\12.2 rel1\arm-none-eabi\include\c++\12.2.1\bits\allocator.h **** #if __cplusplus <= 201703L
 132:c:\program files (x86)\arm gnu toolchain arm-none-eabi\12.2 rel1\arm-none-eabi\include\c++\12.2.1\bits\allocator.h ****       // These were removed for C++20.
 133:c:\program files (x86)\arm gnu toolchain arm-none-eabi\12.2 rel1\arm-none-eabi\include\c++\12.2.1\bits\allocator.h ****       typedef _Tp*       pointer;
 134:c:\program files (x86)\arm gnu toolchain arm-none-eabi\12.2 rel1\arm-none-eabi\include\c++\12.2.1\bits\allocator.h ****       typedef const _Tp* const_pointer;
 135:c:\program files (x86)\arm gnu toolchain arm-none-eabi\12.2 rel1\arm-none-eabi\include\c++\12.2.1\bits\allocator.h ****       typedef _Tp&       reference;
 136:c:\program files (x86)\arm gnu toolchain arm-none-eabi\12.2 rel1\arm-none-eabi\include\c++\12.2.1\bits\allocator.h ****       typedef const _Tp& const_reference;
 137:c:\program files (x86)\arm gnu toolchain arm-none-eabi\12.2 rel1\arm-none-eabi\include\c++\12.2.1\bits\allocator.h **** 
 138:c:\program files (x86)\arm gnu toolchain arm-none-eabi\12.2 rel1\arm-none-eabi\include\c++\12.2.1\bits\allocator.h ****       template<typename _Tp1>
 139:c:\program files (x86)\arm gnu toolchain arm-none-eabi\12.2 rel1\arm-none-eabi\include\c++\12.2.1\bits\allocator.h **** 	struct rebind
 140:c:\program files (x86)\arm gnu toolchain arm-none-eabi\12.2 rel1\arm-none-eabi\include\c++\12.2.1\bits\allocator.h **** 	{ typedef allocator<_Tp1> other; };
 141:c:\program files (x86)\arm gnu toolchain arm-none-eabi\12.2 rel1\arm-none-eabi\include\c++\12.2.1\bits\allocator.h **** #endif
 142:c:\program files (x86)\arm gnu toolchain arm-none-eabi\12.2 rel1\arm-none-eabi\include\c++\12.2.1\bits\allocator.h **** 
 143:c:\program files (x86)\arm gnu toolchain arm-none-eabi\12.2 rel1\arm-none-eabi\include\c++\12.2.1\bits\allocator.h **** #if __cplusplus >= 201103L
 144:c:\program files (x86)\arm gnu toolchain arm-none-eabi\12.2 rel1\arm-none-eabi\include\c++\12.2.1\bits\allocator.h ****       // _GLIBCXX_RESOLVE_LIB_DEFECTS
 145:c:\program files (x86)\arm gnu toolchain arm-none-eabi\12.2 rel1\arm-none-eabi\include\c++\12.2.1\bits\allocator.h ****       // 2103. std::allocator propagate_on_container_move_assignment
 146:c:\program files (x86)\arm gnu toolchain arm-none-eabi\12.2 rel1\arm-none-eabi\include\c++\12.2.1\bits\allocator.h ****       using propagate_on_container_move_assignment = true_type;
 147:c:\program files (x86)\arm gnu toolchain arm-none-eabi\12.2 rel1\arm-none-eabi\include\c++\12.2.1\bits\allocator.h **** 
ARM GAS  C:\Users\wyx12\AppData\Local\Temp\ccLiZMYq.s 			page 32


 148:c:\program files (x86)\arm gnu toolchain arm-none-eabi\12.2 rel1\arm-none-eabi\include\c++\12.2.1\bits\allocator.h ****       using is_always_equal
 149:c:\program files (x86)\arm gnu toolchain arm-none-eabi\12.2 rel1\arm-none-eabi\include\c++\12.2.1\bits\allocator.h **** 	_GLIBCXX20_DEPRECATED_SUGGEST("std::allocator_traits::is_always_equal")
 150:c:\program files (x86)\arm gnu toolchain arm-none-eabi\12.2 rel1\arm-none-eabi\include\c++\12.2.1\bits\allocator.h **** 	= true_type;
 151:c:\program files (x86)\arm gnu toolchain arm-none-eabi\12.2 rel1\arm-none-eabi\include\c++\12.2.1\bits\allocator.h **** #endif
 152:c:\program files (x86)\arm gnu toolchain arm-none-eabi\12.2 rel1\arm-none-eabi\include\c++\12.2.1\bits\allocator.h **** 
 153:c:\program files (x86)\arm gnu toolchain arm-none-eabi\12.2 rel1\arm-none-eabi\include\c++\12.2.1\bits\allocator.h ****       // _GLIBCXX_RESOLVE_LIB_DEFECTS
 154:c:\program files (x86)\arm gnu toolchain arm-none-eabi\12.2 rel1\arm-none-eabi\include\c++\12.2.1\bits\allocator.h ****       // 3035. std::allocator's constructors should be constexpr
 155:c:\program files (x86)\arm gnu toolchain arm-none-eabi\12.2 rel1\arm-none-eabi\include\c++\12.2.1\bits\allocator.h ****       _GLIBCXX20_CONSTEXPR
 156:c:\program files (x86)\arm gnu toolchain arm-none-eabi\12.2 rel1\arm-none-eabi\include\c++\12.2.1\bits\allocator.h ****       allocator() _GLIBCXX_NOTHROW { }
 157:c:\program files (x86)\arm gnu toolchain arm-none-eabi\12.2 rel1\arm-none-eabi\include\c++\12.2.1\bits\allocator.h **** 
 158:c:\program files (x86)\arm gnu toolchain arm-none-eabi\12.2 rel1\arm-none-eabi\include\c++\12.2.1\bits\allocator.h ****       _GLIBCXX20_CONSTEXPR
 159:c:\program files (x86)\arm gnu toolchain arm-none-eabi\12.2 rel1\arm-none-eabi\include\c++\12.2.1\bits\allocator.h ****       allocator(const allocator& __a) _GLIBCXX_NOTHROW
 160:c:\program files (x86)\arm gnu toolchain arm-none-eabi\12.2 rel1\arm-none-eabi\include\c++\12.2.1\bits\allocator.h ****       : __allocator_base<_Tp>(__a) { }
 161:c:\program files (x86)\arm gnu toolchain arm-none-eabi\12.2 rel1\arm-none-eabi\include\c++\12.2.1\bits\allocator.h **** 
 162:c:\program files (x86)\arm gnu toolchain arm-none-eabi\12.2 rel1\arm-none-eabi\include\c++\12.2.1\bits\allocator.h **** #if __cplusplus >= 201103L
 163:c:\program files (x86)\arm gnu toolchain arm-none-eabi\12.2 rel1\arm-none-eabi\include\c++\12.2.1\bits\allocator.h ****       // Avoid implicit deprecation.
 164:c:\program files (x86)\arm gnu toolchain arm-none-eabi\12.2 rel1\arm-none-eabi\include\c++\12.2.1\bits\allocator.h ****       allocator& operator=(const allocator&) = default;
 165:c:\program files (x86)\arm gnu toolchain arm-none-eabi\12.2 rel1\arm-none-eabi\include\c++\12.2.1\bits\allocator.h **** #endif
 166:c:\program files (x86)\arm gnu toolchain arm-none-eabi\12.2 rel1\arm-none-eabi\include\c++\12.2.1\bits\allocator.h **** 
 167:c:\program files (x86)\arm gnu toolchain arm-none-eabi\12.2 rel1\arm-none-eabi\include\c++\12.2.1\bits\allocator.h ****       template<typename _Tp1>
 168:c:\program files (x86)\arm gnu toolchain arm-none-eabi\12.2 rel1\arm-none-eabi\include\c++\12.2.1\bits\allocator.h **** 	_GLIBCXX20_CONSTEXPR
 169:c:\program files (x86)\arm gnu toolchain arm-none-eabi\12.2 rel1\arm-none-eabi\include\c++\12.2.1\bits\allocator.h **** 	allocator(const allocator<_Tp1>&) _GLIBCXX_NOTHROW { }
 170:c:\program files (x86)\arm gnu toolchain arm-none-eabi\12.2 rel1\arm-none-eabi\include\c++\12.2.1\bits\allocator.h **** 
 171:c:\program files (x86)\arm gnu toolchain arm-none-eabi\12.2 rel1\arm-none-eabi\include\c++\12.2.1\bits\allocator.h **** #if __cpp_constexpr_dynamic_alloc
 172:c:\program files (x86)\arm gnu toolchain arm-none-eabi\12.2 rel1\arm-none-eabi\include\c++\12.2.1\bits\allocator.h ****       constexpr
 173:c:\program files (x86)\arm gnu toolchain arm-none-eabi\12.2 rel1\arm-none-eabi\include\c++\12.2.1\bits\allocator.h **** #endif
 174:c:\program files (x86)\arm gnu toolchain arm-none-eabi\12.2 rel1\arm-none-eabi\include\c++\12.2.1\bits\allocator.h ****       ~allocator() _GLIBCXX_NOTHROW { }
 230              		.loc 6 174 7 view .LVU55
 231              	.LBB648:
 232              	.LBI648:
  90:c:\program files (x86)\arm gnu toolchain arm-none-eabi\12.2 rel1\arm-none-eabi\include\c++\12.2.1\bits\new_allocator.h **** 
 233              		.loc 5 90 7 view .LVU56
  90:c:\program files (x86)\arm gnu toolchain arm-none-eabi\12.2 rel1\arm-none-eabi\include\c++\12.2.1\bits\new_allocator.h **** 
 234              		.loc 5 90 7 is_stmt 0 view .LVU57
 235              	.LBE648:
 236              	.LBE647:
 237              	.LBE646:
 238              	.LBE639:
 368:c:\program files (x86)\arm gnu toolchain arm-none-eabi\12.2 rel1\arm-none-eabi\include\c++\12.2.1\bits\stl_vector.h **** 
 239              		.loc 3 368 7 view .LVU58
 240 0010 2046     		mov	r0, r4
 241 0012 10BD     		pop	{r4, pc}
 368:c:\program files (x86)\arm gnu toolchain arm-none-eabi\12.2 rel1\arm-none-eabi\include\c++\12.2.1\bits\stl_vector.h **** 
 242              		.loc 3 368 7 view .LVU59
 243              		.cfi_endproc
 244              	.LFE1846:
 246              		.weak	_ZNSt12_Vector_baseINSt7__cxx1112basic_stringIcSt11char_traitsIcESaIcEEESaIS5_EED1Ev
 247              		.thumb_set _ZNSt12_Vector_baseINSt7__cxx1112basic_stringIcSt11char_traitsIcESaIcEEESaIS5_EED1Ev,_Z
 248              		.section	.text._ZNSt6vectorINSt7__cxx1112basic_stringIcSt11char_traitsIcESaIcEEESaIS5_EED2Ev,"axG"
 249              		.align	1
 250              		.weak	_ZNSt6vectorINSt7__cxx1112basic_stringIcSt11char_traitsIcESaIcEEESaIS5_EED2Ev
 251              		.syntax unified
 252              		.thumb
 253              		.thumb_func
 255              	_ZNSt6vectorINSt7__cxx1112basic_stringIcSt11char_traitsIcESaIcEEESaIS5_EED2Ev:
 256              	.LVL10:
 257              	.LFB1849:
ARM GAS  C:\Users\wyx12\AppData\Local\Temp\ccLiZMYq.s 			page 33


 387:c:\program files (x86)\arm gnu toolchain arm-none-eabi\12.2 rel1\arm-none-eabi\include\c++\12.2.1\bits\stl_vector.h **** 	  _Tr::deallocate(_M_impl, __p, __n);
 388:c:\program files (x86)\arm gnu toolchain arm-none-eabi\12.2 rel1\arm-none-eabi\include\c++\12.2.1\bits\stl_vector.h ****       }
 389:c:\program files (x86)\arm gnu toolchain arm-none-eabi\12.2 rel1\arm-none-eabi\include\c++\12.2.1\bits\stl_vector.h **** 
 390:c:\program files (x86)\arm gnu toolchain arm-none-eabi\12.2 rel1\arm-none-eabi\include\c++\12.2.1\bits\stl_vector.h ****     protected:
 391:c:\program files (x86)\arm gnu toolchain arm-none-eabi\12.2 rel1\arm-none-eabi\include\c++\12.2.1\bits\stl_vector.h ****       _GLIBCXX20_CONSTEXPR
 392:c:\program files (x86)\arm gnu toolchain arm-none-eabi\12.2 rel1\arm-none-eabi\include\c++\12.2.1\bits\stl_vector.h ****       void
 393:c:\program files (x86)\arm gnu toolchain arm-none-eabi\12.2 rel1\arm-none-eabi\include\c++\12.2.1\bits\stl_vector.h ****       _M_create_storage(size_t __n)
 394:c:\program files (x86)\arm gnu toolchain arm-none-eabi\12.2 rel1\arm-none-eabi\include\c++\12.2.1\bits\stl_vector.h ****       {
 395:c:\program files (x86)\arm gnu toolchain arm-none-eabi\12.2 rel1\arm-none-eabi\include\c++\12.2.1\bits\stl_vector.h **** 	this->_M_impl._M_start = this->_M_allocate(__n);
 396:c:\program files (x86)\arm gnu toolchain arm-none-eabi\12.2 rel1\arm-none-eabi\include\c++\12.2.1\bits\stl_vector.h **** 	this->_M_impl._M_finish = this->_M_impl._M_start;
 397:c:\program files (x86)\arm gnu toolchain arm-none-eabi\12.2 rel1\arm-none-eabi\include\c++\12.2.1\bits\stl_vector.h **** 	this->_M_impl._M_end_of_storage = this->_M_impl._M_start + __n;
 398:c:\program files (x86)\arm gnu toolchain arm-none-eabi\12.2 rel1\arm-none-eabi\include\c++\12.2.1\bits\stl_vector.h ****       }
 399:c:\program files (x86)\arm gnu toolchain arm-none-eabi\12.2 rel1\arm-none-eabi\include\c++\12.2.1\bits\stl_vector.h ****     };
 400:c:\program files (x86)\arm gnu toolchain arm-none-eabi\12.2 rel1\arm-none-eabi\include\c++\12.2.1\bits\stl_vector.h **** 
 401:c:\program files (x86)\arm gnu toolchain arm-none-eabi\12.2 rel1\arm-none-eabi\include\c++\12.2.1\bits\stl_vector.h ****   /**
 402:c:\program files (x86)\arm gnu toolchain arm-none-eabi\12.2 rel1\arm-none-eabi\include\c++\12.2.1\bits\stl_vector.h ****    *  @brief A standard container which offers fixed time access to
 403:c:\program files (x86)\arm gnu toolchain arm-none-eabi\12.2 rel1\arm-none-eabi\include\c++\12.2.1\bits\stl_vector.h ****    *  individual elements in any order.
 404:c:\program files (x86)\arm gnu toolchain arm-none-eabi\12.2 rel1\arm-none-eabi\include\c++\12.2.1\bits\stl_vector.h ****    *
 405:c:\program files (x86)\arm gnu toolchain arm-none-eabi\12.2 rel1\arm-none-eabi\include\c++\12.2.1\bits\stl_vector.h ****    *  @ingroup sequences
 406:c:\program files (x86)\arm gnu toolchain arm-none-eabi\12.2 rel1\arm-none-eabi\include\c++\12.2.1\bits\stl_vector.h ****    *
 407:c:\program files (x86)\arm gnu toolchain arm-none-eabi\12.2 rel1\arm-none-eabi\include\c++\12.2.1\bits\stl_vector.h ****    *  @tparam _Tp  Type of element.
 408:c:\program files (x86)\arm gnu toolchain arm-none-eabi\12.2 rel1\arm-none-eabi\include\c++\12.2.1\bits\stl_vector.h ****    *  @tparam _Alloc  Allocator type, defaults to allocator<_Tp>.
 409:c:\program files (x86)\arm gnu toolchain arm-none-eabi\12.2 rel1\arm-none-eabi\include\c++\12.2.1\bits\stl_vector.h ****    *
 410:c:\program files (x86)\arm gnu toolchain arm-none-eabi\12.2 rel1\arm-none-eabi\include\c++\12.2.1\bits\stl_vector.h ****    *  Meets the requirements of a <a href="tables.html#65">container</a>, a
 411:c:\program files (x86)\arm gnu toolchain arm-none-eabi\12.2 rel1\arm-none-eabi\include\c++\12.2.1\bits\stl_vector.h ****    *  <a href="tables.html#66">reversible container</a>, and a
 412:c:\program files (x86)\arm gnu toolchain arm-none-eabi\12.2 rel1\arm-none-eabi\include\c++\12.2.1\bits\stl_vector.h ****    *  <a href="tables.html#67">sequence</a>, including the
 413:c:\program files (x86)\arm gnu toolchain arm-none-eabi\12.2 rel1\arm-none-eabi\include\c++\12.2.1\bits\stl_vector.h ****    *  <a href="tables.html#68">optional sequence requirements</a> with the
 414:c:\program files (x86)\arm gnu toolchain arm-none-eabi\12.2 rel1\arm-none-eabi\include\c++\12.2.1\bits\stl_vector.h ****    *  %exception of @c push_front and @c pop_front.
 415:c:\program files (x86)\arm gnu toolchain arm-none-eabi\12.2 rel1\arm-none-eabi\include\c++\12.2.1\bits\stl_vector.h ****    *
 416:c:\program files (x86)\arm gnu toolchain arm-none-eabi\12.2 rel1\arm-none-eabi\include\c++\12.2.1\bits\stl_vector.h ****    *  In some terminology a %vector can be described as a dynamic
 417:c:\program files (x86)\arm gnu toolchain arm-none-eabi\12.2 rel1\arm-none-eabi\include\c++\12.2.1\bits\stl_vector.h ****    *  C-style array, it offers fast and efficient access to individual
 418:c:\program files (x86)\arm gnu toolchain arm-none-eabi\12.2 rel1\arm-none-eabi\include\c++\12.2.1\bits\stl_vector.h ****    *  elements in any order and saves the user from worrying about
 419:c:\program files (x86)\arm gnu toolchain arm-none-eabi\12.2 rel1\arm-none-eabi\include\c++\12.2.1\bits\stl_vector.h ****    *  memory and size allocation.  Subscripting ( @c [] ) access is
 420:c:\program files (x86)\arm gnu toolchain arm-none-eabi\12.2 rel1\arm-none-eabi\include\c++\12.2.1\bits\stl_vector.h ****    *  also provided as with C-style arrays.
 421:c:\program files (x86)\arm gnu toolchain arm-none-eabi\12.2 rel1\arm-none-eabi\include\c++\12.2.1\bits\stl_vector.h ****   */
 422:c:\program files (x86)\arm gnu toolchain arm-none-eabi\12.2 rel1\arm-none-eabi\include\c++\12.2.1\bits\stl_vector.h ****   template<typename _Tp, typename _Alloc = std::allocator<_Tp> >
 423:c:\program files (x86)\arm gnu toolchain arm-none-eabi\12.2 rel1\arm-none-eabi\include\c++\12.2.1\bits\stl_vector.h ****     class vector : protected _Vector_base<_Tp, _Alloc>
 424:c:\program files (x86)\arm gnu toolchain arm-none-eabi\12.2 rel1\arm-none-eabi\include\c++\12.2.1\bits\stl_vector.h ****     {
 425:c:\program files (x86)\arm gnu toolchain arm-none-eabi\12.2 rel1\arm-none-eabi\include\c++\12.2.1\bits\stl_vector.h **** #ifdef _GLIBCXX_CONCEPT_CHECKS
 426:c:\program files (x86)\arm gnu toolchain arm-none-eabi\12.2 rel1\arm-none-eabi\include\c++\12.2.1\bits\stl_vector.h ****       // Concept requirements.
 427:c:\program files (x86)\arm gnu toolchain arm-none-eabi\12.2 rel1\arm-none-eabi\include\c++\12.2.1\bits\stl_vector.h ****       typedef typename _Alloc::value_type		_Alloc_value_type;
 428:c:\program files (x86)\arm gnu toolchain arm-none-eabi\12.2 rel1\arm-none-eabi\include\c++\12.2.1\bits\stl_vector.h **** # if __cplusplus < 201103L
 429:c:\program files (x86)\arm gnu toolchain arm-none-eabi\12.2 rel1\arm-none-eabi\include\c++\12.2.1\bits\stl_vector.h ****       __glibcxx_class_requires(_Tp, _SGIAssignableConcept)
 430:c:\program files (x86)\arm gnu toolchain arm-none-eabi\12.2 rel1\arm-none-eabi\include\c++\12.2.1\bits\stl_vector.h **** # endif
 431:c:\program files (x86)\arm gnu toolchain arm-none-eabi\12.2 rel1\arm-none-eabi\include\c++\12.2.1\bits\stl_vector.h ****       __glibcxx_class_requires2(_Tp, _Alloc_value_type, _SameTypeConcept)
 432:c:\program files (x86)\arm gnu toolchain arm-none-eabi\12.2 rel1\arm-none-eabi\include\c++\12.2.1\bits\stl_vector.h **** #endif
 433:c:\program files (x86)\arm gnu toolchain arm-none-eabi\12.2 rel1\arm-none-eabi\include\c++\12.2.1\bits\stl_vector.h **** 
 434:c:\program files (x86)\arm gnu toolchain arm-none-eabi\12.2 rel1\arm-none-eabi\include\c++\12.2.1\bits\stl_vector.h **** #if __cplusplus >= 201103L
 435:c:\program files (x86)\arm gnu toolchain arm-none-eabi\12.2 rel1\arm-none-eabi\include\c++\12.2.1\bits\stl_vector.h ****       static_assert(is_same<typename remove_cv<_Tp>::type, _Tp>::value,
 436:c:\program files (x86)\arm gnu toolchain arm-none-eabi\12.2 rel1\arm-none-eabi\include\c++\12.2.1\bits\stl_vector.h **** 	  "std::vector must have a non-const, non-volatile value_type");
 437:c:\program files (x86)\arm gnu toolchain arm-none-eabi\12.2 rel1\arm-none-eabi\include\c++\12.2.1\bits\stl_vector.h **** # if __cplusplus > 201703L || defined __STRICT_ANSI__
 438:c:\program files (x86)\arm gnu toolchain arm-none-eabi\12.2 rel1\arm-none-eabi\include\c++\12.2.1\bits\stl_vector.h ****       static_assert(is_same<typename _Alloc::value_type, _Tp>::value,
 439:c:\program files (x86)\arm gnu toolchain arm-none-eabi\12.2 rel1\arm-none-eabi\include\c++\12.2.1\bits\stl_vector.h **** 	  "std::vector must have the same value_type as its allocator");
 440:c:\program files (x86)\arm gnu toolchain arm-none-eabi\12.2 rel1\arm-none-eabi\include\c++\12.2.1\bits\stl_vector.h **** # endif
 441:c:\program files (x86)\arm gnu toolchain arm-none-eabi\12.2 rel1\arm-none-eabi\include\c++\12.2.1\bits\stl_vector.h **** #endif
 442:c:\program files (x86)\arm gnu toolchain arm-none-eabi\12.2 rel1\arm-none-eabi\include\c++\12.2.1\bits\stl_vector.h **** 
 443:c:\program files (x86)\arm gnu toolchain arm-none-eabi\12.2 rel1\arm-none-eabi\include\c++\12.2.1\bits\stl_vector.h ****       typedef _Vector_base<_Tp, _Alloc>			_Base;
ARM GAS  C:\Users\wyx12\AppData\Local\Temp\ccLiZMYq.s 			page 34


 444:c:\program files (x86)\arm gnu toolchain arm-none-eabi\12.2 rel1\arm-none-eabi\include\c++\12.2.1\bits\stl_vector.h ****       typedef typename _Base::_Tp_alloc_type		_Tp_alloc_type;
 445:c:\program files (x86)\arm gnu toolchain arm-none-eabi\12.2 rel1\arm-none-eabi\include\c++\12.2.1\bits\stl_vector.h ****       typedef __gnu_cxx::__alloc_traits<_Tp_alloc_type>	_Alloc_traits;
 446:c:\program files (x86)\arm gnu toolchain arm-none-eabi\12.2 rel1\arm-none-eabi\include\c++\12.2.1\bits\stl_vector.h **** 
 447:c:\program files (x86)\arm gnu toolchain arm-none-eabi\12.2 rel1\arm-none-eabi\include\c++\12.2.1\bits\stl_vector.h ****     public:
 448:c:\program files (x86)\arm gnu toolchain arm-none-eabi\12.2 rel1\arm-none-eabi\include\c++\12.2.1\bits\stl_vector.h ****       typedef _Tp					value_type;
 449:c:\program files (x86)\arm gnu toolchain arm-none-eabi\12.2 rel1\arm-none-eabi\include\c++\12.2.1\bits\stl_vector.h ****       typedef typename _Base::pointer			pointer;
 450:c:\program files (x86)\arm gnu toolchain arm-none-eabi\12.2 rel1\arm-none-eabi\include\c++\12.2.1\bits\stl_vector.h ****       typedef typename _Alloc_traits::const_pointer	const_pointer;
 451:c:\program files (x86)\arm gnu toolchain arm-none-eabi\12.2 rel1\arm-none-eabi\include\c++\12.2.1\bits\stl_vector.h ****       typedef typename _Alloc_traits::reference		reference;
 452:c:\program files (x86)\arm gnu toolchain arm-none-eabi\12.2 rel1\arm-none-eabi\include\c++\12.2.1\bits\stl_vector.h ****       typedef typename _Alloc_traits::const_reference	const_reference;
 453:c:\program files (x86)\arm gnu toolchain arm-none-eabi\12.2 rel1\arm-none-eabi\include\c++\12.2.1\bits\stl_vector.h ****       typedef __gnu_cxx::__normal_iterator<pointer, vector> iterator;
 454:c:\program files (x86)\arm gnu toolchain arm-none-eabi\12.2 rel1\arm-none-eabi\include\c++\12.2.1\bits\stl_vector.h ****       typedef __gnu_cxx::__normal_iterator<const_pointer, vector>
 455:c:\program files (x86)\arm gnu toolchain arm-none-eabi\12.2 rel1\arm-none-eabi\include\c++\12.2.1\bits\stl_vector.h ****       const_iterator;
 456:c:\program files (x86)\arm gnu toolchain arm-none-eabi\12.2 rel1\arm-none-eabi\include\c++\12.2.1\bits\stl_vector.h ****       typedef std::reverse_iterator<const_iterator>	const_reverse_iterator;
 457:c:\program files (x86)\arm gnu toolchain arm-none-eabi\12.2 rel1\arm-none-eabi\include\c++\12.2.1\bits\stl_vector.h ****       typedef std::reverse_iterator<iterator>		reverse_iterator;
 458:c:\program files (x86)\arm gnu toolchain arm-none-eabi\12.2 rel1\arm-none-eabi\include\c++\12.2.1\bits\stl_vector.h ****       typedef size_t					size_type;
 459:c:\program files (x86)\arm gnu toolchain arm-none-eabi\12.2 rel1\arm-none-eabi\include\c++\12.2.1\bits\stl_vector.h ****       typedef ptrdiff_t					difference_type;
 460:c:\program files (x86)\arm gnu toolchain arm-none-eabi\12.2 rel1\arm-none-eabi\include\c++\12.2.1\bits\stl_vector.h ****       typedef _Alloc					allocator_type;
 461:c:\program files (x86)\arm gnu toolchain arm-none-eabi\12.2 rel1\arm-none-eabi\include\c++\12.2.1\bits\stl_vector.h **** 
 462:c:\program files (x86)\arm gnu toolchain arm-none-eabi\12.2 rel1\arm-none-eabi\include\c++\12.2.1\bits\stl_vector.h ****     private:
 463:c:\program files (x86)\arm gnu toolchain arm-none-eabi\12.2 rel1\arm-none-eabi\include\c++\12.2.1\bits\stl_vector.h **** #if __cplusplus >= 201103L
 464:c:\program files (x86)\arm gnu toolchain arm-none-eabi\12.2 rel1\arm-none-eabi\include\c++\12.2.1\bits\stl_vector.h ****       static constexpr bool
 465:c:\program files (x86)\arm gnu toolchain arm-none-eabi\12.2 rel1\arm-none-eabi\include\c++\12.2.1\bits\stl_vector.h ****       _S_nothrow_relocate(true_type)
 466:c:\program files (x86)\arm gnu toolchain arm-none-eabi\12.2 rel1\arm-none-eabi\include\c++\12.2.1\bits\stl_vector.h ****       {
 467:c:\program files (x86)\arm gnu toolchain arm-none-eabi\12.2 rel1\arm-none-eabi\include\c++\12.2.1\bits\stl_vector.h **** 	return noexcept(std::__relocate_a(std::declval<pointer>(),
 468:c:\program files (x86)\arm gnu toolchain arm-none-eabi\12.2 rel1\arm-none-eabi\include\c++\12.2.1\bits\stl_vector.h **** 					  std::declval<pointer>(),
 469:c:\program files (x86)\arm gnu toolchain arm-none-eabi\12.2 rel1\arm-none-eabi\include\c++\12.2.1\bits\stl_vector.h **** 					  std::declval<pointer>(),
 470:c:\program files (x86)\arm gnu toolchain arm-none-eabi\12.2 rel1\arm-none-eabi\include\c++\12.2.1\bits\stl_vector.h **** 					  std::declval<_Tp_alloc_type&>()));
 471:c:\program files (x86)\arm gnu toolchain arm-none-eabi\12.2 rel1\arm-none-eabi\include\c++\12.2.1\bits\stl_vector.h ****       }
 472:c:\program files (x86)\arm gnu toolchain arm-none-eabi\12.2 rel1\arm-none-eabi\include\c++\12.2.1\bits\stl_vector.h **** 
 473:c:\program files (x86)\arm gnu toolchain arm-none-eabi\12.2 rel1\arm-none-eabi\include\c++\12.2.1\bits\stl_vector.h ****       static constexpr bool
 474:c:\program files (x86)\arm gnu toolchain arm-none-eabi\12.2 rel1\arm-none-eabi\include\c++\12.2.1\bits\stl_vector.h ****       _S_nothrow_relocate(false_type)
 475:c:\program files (x86)\arm gnu toolchain arm-none-eabi\12.2 rel1\arm-none-eabi\include\c++\12.2.1\bits\stl_vector.h ****       { return false; }
 476:c:\program files (x86)\arm gnu toolchain arm-none-eabi\12.2 rel1\arm-none-eabi\include\c++\12.2.1\bits\stl_vector.h **** 
 477:c:\program files (x86)\arm gnu toolchain arm-none-eabi\12.2 rel1\arm-none-eabi\include\c++\12.2.1\bits\stl_vector.h ****       static constexpr bool
 478:c:\program files (x86)\arm gnu toolchain arm-none-eabi\12.2 rel1\arm-none-eabi\include\c++\12.2.1\bits\stl_vector.h ****       _S_use_relocate()
 479:c:\program files (x86)\arm gnu toolchain arm-none-eabi\12.2 rel1\arm-none-eabi\include\c++\12.2.1\bits\stl_vector.h ****       {
 480:c:\program files (x86)\arm gnu toolchain arm-none-eabi\12.2 rel1\arm-none-eabi\include\c++\12.2.1\bits\stl_vector.h **** 	// Instantiating std::__relocate_a might cause an error outside the
 481:c:\program files (x86)\arm gnu toolchain arm-none-eabi\12.2 rel1\arm-none-eabi\include\c++\12.2.1\bits\stl_vector.h **** 	// immediate context (in __relocate_object_a's noexcept-specifier),
 482:c:\program files (x86)\arm gnu toolchain arm-none-eabi\12.2 rel1\arm-none-eabi\include\c++\12.2.1\bits\stl_vector.h **** 	// so only do it if we know the type can be move-inserted into *this.
 483:c:\program files (x86)\arm gnu toolchain arm-none-eabi\12.2 rel1\arm-none-eabi\include\c++\12.2.1\bits\stl_vector.h **** 	return _S_nothrow_relocate(__is_move_insertable<_Tp_alloc_type>{});
 484:c:\program files (x86)\arm gnu toolchain arm-none-eabi\12.2 rel1\arm-none-eabi\include\c++\12.2.1\bits\stl_vector.h ****       }
 485:c:\program files (x86)\arm gnu toolchain arm-none-eabi\12.2 rel1\arm-none-eabi\include\c++\12.2.1\bits\stl_vector.h **** 
 486:c:\program files (x86)\arm gnu toolchain arm-none-eabi\12.2 rel1\arm-none-eabi\include\c++\12.2.1\bits\stl_vector.h ****       static pointer
 487:c:\program files (x86)\arm gnu toolchain arm-none-eabi\12.2 rel1\arm-none-eabi\include\c++\12.2.1\bits\stl_vector.h ****       _S_do_relocate(pointer __first, pointer __last, pointer __result,
 488:c:\program files (x86)\arm gnu toolchain arm-none-eabi\12.2 rel1\arm-none-eabi\include\c++\12.2.1\bits\stl_vector.h **** 		     _Tp_alloc_type& __alloc, true_type) noexcept
 489:c:\program files (x86)\arm gnu toolchain arm-none-eabi\12.2 rel1\arm-none-eabi\include\c++\12.2.1\bits\stl_vector.h ****       {
 490:c:\program files (x86)\arm gnu toolchain arm-none-eabi\12.2 rel1\arm-none-eabi\include\c++\12.2.1\bits\stl_vector.h **** 	return std::__relocate_a(__first, __last, __result, __alloc);
 491:c:\program files (x86)\arm gnu toolchain arm-none-eabi\12.2 rel1\arm-none-eabi\include\c++\12.2.1\bits\stl_vector.h ****       }
 492:c:\program files (x86)\arm gnu toolchain arm-none-eabi\12.2 rel1\arm-none-eabi\include\c++\12.2.1\bits\stl_vector.h **** 
 493:c:\program files (x86)\arm gnu toolchain arm-none-eabi\12.2 rel1\arm-none-eabi\include\c++\12.2.1\bits\stl_vector.h ****       static pointer
 494:c:\program files (x86)\arm gnu toolchain arm-none-eabi\12.2 rel1\arm-none-eabi\include\c++\12.2.1\bits\stl_vector.h ****       _S_do_relocate(pointer, pointer, pointer __result,
 495:c:\program files (x86)\arm gnu toolchain arm-none-eabi\12.2 rel1\arm-none-eabi\include\c++\12.2.1\bits\stl_vector.h **** 		     _Tp_alloc_type&, false_type) noexcept
 496:c:\program files (x86)\arm gnu toolchain arm-none-eabi\12.2 rel1\arm-none-eabi\include\c++\12.2.1\bits\stl_vector.h ****       { return __result; }
 497:c:\program files (x86)\arm gnu toolchain arm-none-eabi\12.2 rel1\arm-none-eabi\include\c++\12.2.1\bits\stl_vector.h **** 
 498:c:\program files (x86)\arm gnu toolchain arm-none-eabi\12.2 rel1\arm-none-eabi\include\c++\12.2.1\bits\stl_vector.h ****       static _GLIBCXX20_CONSTEXPR pointer
 499:c:\program files (x86)\arm gnu toolchain arm-none-eabi\12.2 rel1\arm-none-eabi\include\c++\12.2.1\bits\stl_vector.h ****       _S_relocate(pointer __first, pointer __last, pointer __result,
 500:c:\program files (x86)\arm gnu toolchain arm-none-eabi\12.2 rel1\arm-none-eabi\include\c++\12.2.1\bits\stl_vector.h **** 		  _Tp_alloc_type& __alloc) noexcept
ARM GAS  C:\Users\wyx12\AppData\Local\Temp\ccLiZMYq.s 			page 35


 501:c:\program files (x86)\arm gnu toolchain arm-none-eabi\12.2 rel1\arm-none-eabi\include\c++\12.2.1\bits\stl_vector.h ****       {
 502:c:\program files (x86)\arm gnu toolchain arm-none-eabi\12.2 rel1\arm-none-eabi\include\c++\12.2.1\bits\stl_vector.h **** #if __cpp_if_constexpr
 503:c:\program files (x86)\arm gnu toolchain arm-none-eabi\12.2 rel1\arm-none-eabi\include\c++\12.2.1\bits\stl_vector.h **** 	// All callers have already checked _S_use_relocate() so just do it.
 504:c:\program files (x86)\arm gnu toolchain arm-none-eabi\12.2 rel1\arm-none-eabi\include\c++\12.2.1\bits\stl_vector.h **** 	return std::__relocate_a(__first, __last, __result, __alloc);
 505:c:\program files (x86)\arm gnu toolchain arm-none-eabi\12.2 rel1\arm-none-eabi\include\c++\12.2.1\bits\stl_vector.h **** #else
 506:c:\program files (x86)\arm gnu toolchain arm-none-eabi\12.2 rel1\arm-none-eabi\include\c++\12.2.1\bits\stl_vector.h **** 	using __do_it = __bool_constant<_S_use_relocate()>;
